   1               		.file	"lufa.c"
   2               	__SP_H__ = 0x3e
   3               	__SP_L__ = 0x3d
   4               	__SREG__ = 0x3f
   5               	__tmp_reg__ = 0
   6               	__zero_reg__ = 1
   7               		.text
   8               	.Ltext0:
   9               		.cfi_sections	.debug_frame
  10               		.section	.text.keyboard_leds,"ax",@progbits
  12               	keyboard_leds:
  13               	.LFB113:
  14               		.file 1 "../../tmk_core/protocol/lufa/lufa.c"
   1:../../tmk_core/protocol/lufa/lufa.c **** /* 
   2:../../tmk_core/protocol/lufa/lufa.c ****  * Copyright 2012 Jun Wako <wakojun@gmail.com>
   3:../../tmk_core/protocol/lufa/lufa.c ****  * This file is based on:
   4:../../tmk_core/protocol/lufa/lufa.c ****  *     LUFA-120219/Demos/Device/Lowlevel/KeyboardMouse
   5:../../tmk_core/protocol/lufa/lufa.c ****  *     LUFA-120219/Demos/Device/Lowlevel/GenericHID
   6:../../tmk_core/protocol/lufa/lufa.c ****  */
   7:../../tmk_core/protocol/lufa/lufa.c **** 
   8:../../tmk_core/protocol/lufa/lufa.c **** /*
   9:../../tmk_core/protocol/lufa/lufa.c ****              LUFA Library
  10:../../tmk_core/protocol/lufa/lufa.c ****      Copyright (C) Dean Camera, 2012.
  11:../../tmk_core/protocol/lufa/lufa.c **** 
  12:../../tmk_core/protocol/lufa/lufa.c ****   dean [at] fourwalledcubicle [dot] com
  13:../../tmk_core/protocol/lufa/lufa.c ****            www.lufa-lib.org
  14:../../tmk_core/protocol/lufa/lufa.c **** */
  15:../../tmk_core/protocol/lufa/lufa.c **** 
  16:../../tmk_core/protocol/lufa/lufa.c **** /*
  17:../../tmk_core/protocol/lufa/lufa.c ****   Copyright 2012  Dean Camera (dean [at] fourwalledcubicle [dot] com)
  18:../../tmk_core/protocol/lufa/lufa.c ****   Copyright 2010  Denver Gingerich (denver [at] ossguy [dot] com)
  19:../../tmk_core/protocol/lufa/lufa.c **** 
  20:../../tmk_core/protocol/lufa/lufa.c ****   Permission to use, copy, modify, distribute, and sell this
  21:../../tmk_core/protocol/lufa/lufa.c ****   software and its documentation for any purpose is hereby granted
  22:../../tmk_core/protocol/lufa/lufa.c ****   without fee, provided that the above copyright notice appear in
  23:../../tmk_core/protocol/lufa/lufa.c ****   all copies and that both that the copyright notice and this
  24:../../tmk_core/protocol/lufa/lufa.c ****   permission notice and warranty disclaimer appear in supporting
  25:../../tmk_core/protocol/lufa/lufa.c ****   documentation, and that the name of the author not be used in
  26:../../tmk_core/protocol/lufa/lufa.c ****   advertising or publicity pertaining to distribution of the
  27:../../tmk_core/protocol/lufa/lufa.c ****   software without specific, written prior permission.
  28:../../tmk_core/protocol/lufa/lufa.c **** 
  29:../../tmk_core/protocol/lufa/lufa.c ****   The author disclaim all warranties with regard to this
  30:../../tmk_core/protocol/lufa/lufa.c ****   software, including all implied warranties of merchantability
  31:../../tmk_core/protocol/lufa/lufa.c ****   and fitness.  In no event shall the author be liable for any
  32:../../tmk_core/protocol/lufa/lufa.c ****   special, indirect or consequential damages or any damages
  33:../../tmk_core/protocol/lufa/lufa.c ****   whatsoever resulting from loss of use, data or profits, whether
  34:../../tmk_core/protocol/lufa/lufa.c ****   in an action of contract, negligence or other tortious action,
  35:../../tmk_core/protocol/lufa/lufa.c ****   arising out of or in connection with the use or performance of
  36:../../tmk_core/protocol/lufa/lufa.c ****   this software.
  37:../../tmk_core/protocol/lufa/lufa.c **** */
  38:../../tmk_core/protocol/lufa/lufa.c **** 
  39:../../tmk_core/protocol/lufa/lufa.c **** #include "report.h"
  40:../../tmk_core/protocol/lufa/lufa.c **** #include "host.h"
  41:../../tmk_core/protocol/lufa/lufa.c **** #include "host_driver.h"
  42:../../tmk_core/protocol/lufa/lufa.c **** #include "keyboard.h"
  43:../../tmk_core/protocol/lufa/lufa.c **** #include "action.h"
  44:../../tmk_core/protocol/lufa/lufa.c **** #include "led.h"
  45:../../tmk_core/protocol/lufa/lufa.c **** #include "sendchar.h"
  46:../../tmk_core/protocol/lufa/lufa.c **** #include "debug.h"
  47:../../tmk_core/protocol/lufa/lufa.c **** #ifdef SLEEP_LED_ENABLE
  48:../../tmk_core/protocol/lufa/lufa.c **** #include "sleep_led.h"
  49:../../tmk_core/protocol/lufa/lufa.c **** #endif
  50:../../tmk_core/protocol/lufa/lufa.c **** #include "suspend.h"
  51:../../tmk_core/protocol/lufa/lufa.c **** 
  52:../../tmk_core/protocol/lufa/lufa.c **** #include "descriptor.h"
  53:../../tmk_core/protocol/lufa/lufa.c **** #include "lufa.h"
  54:../../tmk_core/protocol/lufa/lufa.c **** 
  55:../../tmk_core/protocol/lufa/lufa.c **** #ifdef AUDIO_ENABLE
  56:../../tmk_core/protocol/lufa/lufa.c ****     #include <audio.h>
  57:../../tmk_core/protocol/lufa/lufa.c **** #endif
  58:../../tmk_core/protocol/lufa/lufa.c **** 
  59:../../tmk_core/protocol/lufa/lufa.c **** #ifdef BLUETOOTH_ENABLE
  60:../../tmk_core/protocol/lufa/lufa.c ****     #include "bluetooth.h"
  61:../../tmk_core/protocol/lufa/lufa.c **** #endif
  62:../../tmk_core/protocol/lufa/lufa.c **** 
  63:../../tmk_core/protocol/lufa/lufa.c **** uint8_t keyboard_idle = 0;
  64:../../tmk_core/protocol/lufa/lufa.c **** /* 0: Boot Protocol, 1: Report Protocol(default) */
  65:../../tmk_core/protocol/lufa/lufa.c **** uint8_t keyboard_protocol = 1;
  66:../../tmk_core/protocol/lufa/lufa.c **** static uint8_t keyboard_led_stats = 0;
  67:../../tmk_core/protocol/lufa/lufa.c **** 
  68:../../tmk_core/protocol/lufa/lufa.c **** static report_keyboard_t keyboard_report_sent;
  69:../../tmk_core/protocol/lufa/lufa.c **** 
  70:../../tmk_core/protocol/lufa/lufa.c **** #ifdef MIDI_ENABLE
  71:../../tmk_core/protocol/lufa/lufa.c **** void usb_send_func(MidiDevice * device, uint16_t cnt, uint8_t byte0, uint8_t byte1, uint8_t byte2);
  72:../../tmk_core/protocol/lufa/lufa.c **** void usb_get_midi(MidiDevice * device);
  73:../../tmk_core/protocol/lufa/lufa.c **** void midi_usb_init(MidiDevice * device);
  74:../../tmk_core/protocol/lufa/lufa.c **** #endif
  75:../../tmk_core/protocol/lufa/lufa.c **** 
  76:../../tmk_core/protocol/lufa/lufa.c **** /* Host driver */
  77:../../tmk_core/protocol/lufa/lufa.c **** static uint8_t keyboard_leds(void);
  78:../../tmk_core/protocol/lufa/lufa.c **** static void send_keyboard(report_keyboard_t *report);
  79:../../tmk_core/protocol/lufa/lufa.c **** static void send_mouse(report_mouse_t *report);
  80:../../tmk_core/protocol/lufa/lufa.c **** static void send_system(uint16_t data);
  81:../../tmk_core/protocol/lufa/lufa.c **** static void send_consumer(uint16_t data);
  82:../../tmk_core/protocol/lufa/lufa.c **** host_driver_t lufa_driver = {
  83:../../tmk_core/protocol/lufa/lufa.c ****     keyboard_leds,
  84:../../tmk_core/protocol/lufa/lufa.c ****     send_keyboard,
  85:../../tmk_core/protocol/lufa/lufa.c ****     send_mouse,
  86:../../tmk_core/protocol/lufa/lufa.c ****     send_system,
  87:../../tmk_core/protocol/lufa/lufa.c ****     send_consumer,
  88:../../tmk_core/protocol/lufa/lufa.c **** #ifdef MIDI_ENABLE
  89:../../tmk_core/protocol/lufa/lufa.c ****     usb_send_func,
  90:../../tmk_core/protocol/lufa/lufa.c ****     usb_get_midi,
  91:../../tmk_core/protocol/lufa/lufa.c ****     midi_usb_init
  92:../../tmk_core/protocol/lufa/lufa.c **** #endif
  93:../../tmk_core/protocol/lufa/lufa.c **** };
  94:../../tmk_core/protocol/lufa/lufa.c **** 
  95:../../tmk_core/protocol/lufa/lufa.c **** /*******************************************************************************
  96:../../tmk_core/protocol/lufa/lufa.c ****  * MIDI
  97:../../tmk_core/protocol/lufa/lufa.c ****  ******************************************************************************/
  98:../../tmk_core/protocol/lufa/lufa.c **** 
  99:../../tmk_core/protocol/lufa/lufa.c **** #ifdef MIDI_ENABLE
 100:../../tmk_core/protocol/lufa/lufa.c **** USB_ClassInfo_MIDI_Device_t USB_MIDI_Interface =
 101:../../tmk_core/protocol/lufa/lufa.c **** {
 102:../../tmk_core/protocol/lufa/lufa.c ****   .Config =
 103:../../tmk_core/protocol/lufa/lufa.c ****   {
 104:../../tmk_core/protocol/lufa/lufa.c ****     .StreamingInterfaceNumber = AS_INTERFACE,
 105:../../tmk_core/protocol/lufa/lufa.c ****     .DataINEndpoint           =
 106:../../tmk_core/protocol/lufa/lufa.c ****     {
 107:../../tmk_core/protocol/lufa/lufa.c ****       .Address          = MIDI_STREAM_IN_EPADDR,
 108:../../tmk_core/protocol/lufa/lufa.c ****       .Size             = MIDI_STREAM_EPSIZE,
 109:../../tmk_core/protocol/lufa/lufa.c ****       .Banks            = 1,
 110:../../tmk_core/protocol/lufa/lufa.c ****     },
 111:../../tmk_core/protocol/lufa/lufa.c ****     .DataOUTEndpoint          =
 112:../../tmk_core/protocol/lufa/lufa.c ****     {
 113:../../tmk_core/protocol/lufa/lufa.c ****       .Address          = MIDI_STREAM_OUT_EPADDR,
 114:../../tmk_core/protocol/lufa/lufa.c ****       .Size             = MIDI_STREAM_EPSIZE,
 115:../../tmk_core/protocol/lufa/lufa.c ****       .Banks            = 1,
 116:../../tmk_core/protocol/lufa/lufa.c ****     },
 117:../../tmk_core/protocol/lufa/lufa.c ****   },
 118:../../tmk_core/protocol/lufa/lufa.c **** };
 119:../../tmk_core/protocol/lufa/lufa.c **** 
 120:../../tmk_core/protocol/lufa/lufa.c **** #define SYSEX_START_OR_CONT 0x40
 121:../../tmk_core/protocol/lufa/lufa.c **** #define SYSEX_ENDS_IN_1 0x50
 122:../../tmk_core/protocol/lufa/lufa.c **** #define SYSEX_ENDS_IN_2 0x60
 123:../../tmk_core/protocol/lufa/lufa.c **** #define SYSEX_ENDS_IN_3 0x70
 124:../../tmk_core/protocol/lufa/lufa.c **** 
 125:../../tmk_core/protocol/lufa/lufa.c **** #define SYS_COMMON_1 0x50
 126:../../tmk_core/protocol/lufa/lufa.c **** #define SYS_COMMON_2 0x20
 127:../../tmk_core/protocol/lufa/lufa.c **** #define SYS_COMMON_3 0x30
 128:../../tmk_core/protocol/lufa/lufa.c **** #endif
 129:../../tmk_core/protocol/lufa/lufa.c **** 
 130:../../tmk_core/protocol/lufa/lufa.c **** 
 131:../../tmk_core/protocol/lufa/lufa.c **** /*******************************************************************************
 132:../../tmk_core/protocol/lufa/lufa.c ****  * Console
 133:../../tmk_core/protocol/lufa/lufa.c ****  ******************************************************************************/
 134:../../tmk_core/protocol/lufa/lufa.c **** #ifdef CONSOLE_ENABLE
 135:../../tmk_core/protocol/lufa/lufa.c **** static void Console_Task(void)
 136:../../tmk_core/protocol/lufa/lufa.c **** {
 137:../../tmk_core/protocol/lufa/lufa.c ****     /* Device must be connected and configured for the task to run */
 138:../../tmk_core/protocol/lufa/lufa.c ****     if (USB_DeviceState != DEVICE_STATE_Configured)
 139:../../tmk_core/protocol/lufa/lufa.c ****         return;
 140:../../tmk_core/protocol/lufa/lufa.c **** 
 141:../../tmk_core/protocol/lufa/lufa.c ****     uint8_t ep = Endpoint_GetCurrentEndpoint();
 142:../../tmk_core/protocol/lufa/lufa.c **** 
 143:../../tmk_core/protocol/lufa/lufa.c **** #if 0
 144:../../tmk_core/protocol/lufa/lufa.c ****     // TODO: impl receivechar()/recvchar()
 145:../../tmk_core/protocol/lufa/lufa.c ****     Endpoint_SelectEndpoint(CONSOLE_OUT_EPNUM);
 146:../../tmk_core/protocol/lufa/lufa.c **** 
 147:../../tmk_core/protocol/lufa/lufa.c ****     /* Check to see if a packet has been sent from the host */
 148:../../tmk_core/protocol/lufa/lufa.c ****     if (Endpoint_IsOUTReceived())
 149:../../tmk_core/protocol/lufa/lufa.c ****     {
 150:../../tmk_core/protocol/lufa/lufa.c ****         /* Check to see if the packet contains data */
 151:../../tmk_core/protocol/lufa/lufa.c ****         if (Endpoint_IsReadWriteAllowed())
 152:../../tmk_core/protocol/lufa/lufa.c ****         {
 153:../../tmk_core/protocol/lufa/lufa.c ****             /* Create a temporary buffer to hold the read in report from the host */
 154:../../tmk_core/protocol/lufa/lufa.c ****             uint8_t ConsoleData[CONSOLE_EPSIZE];
 155:../../tmk_core/protocol/lufa/lufa.c ****  
 156:../../tmk_core/protocol/lufa/lufa.c ****             /* Read Console Report Data */
 157:../../tmk_core/protocol/lufa/lufa.c ****             Endpoint_Read_Stream_LE(&ConsoleData, sizeof(ConsoleData), NULL);
 158:../../tmk_core/protocol/lufa/lufa.c ****  
 159:../../tmk_core/protocol/lufa/lufa.c ****             /* Process Console Report Data */
 160:../../tmk_core/protocol/lufa/lufa.c ****             //ProcessConsoleHIDReport(ConsoleData);
 161:../../tmk_core/protocol/lufa/lufa.c ****         }
 162:../../tmk_core/protocol/lufa/lufa.c **** 
 163:../../tmk_core/protocol/lufa/lufa.c ****         /* Finalize the stream transfer to send the last packet */
 164:../../tmk_core/protocol/lufa/lufa.c ****         Endpoint_ClearOUT();
 165:../../tmk_core/protocol/lufa/lufa.c ****     }
 166:../../tmk_core/protocol/lufa/lufa.c **** #endif
 167:../../tmk_core/protocol/lufa/lufa.c **** 
 168:../../tmk_core/protocol/lufa/lufa.c ****     /* IN packet */
 169:../../tmk_core/protocol/lufa/lufa.c ****     Endpoint_SelectEndpoint(CONSOLE_IN_EPNUM);
 170:../../tmk_core/protocol/lufa/lufa.c ****     if (!Endpoint_IsEnabled() || !Endpoint_IsConfigured()) {
 171:../../tmk_core/protocol/lufa/lufa.c ****         Endpoint_SelectEndpoint(ep);
 172:../../tmk_core/protocol/lufa/lufa.c ****         return;
 173:../../tmk_core/protocol/lufa/lufa.c ****     }
 174:../../tmk_core/protocol/lufa/lufa.c **** 
 175:../../tmk_core/protocol/lufa/lufa.c ****     // fill empty bank
 176:../../tmk_core/protocol/lufa/lufa.c ****     while (Endpoint_IsReadWriteAllowed())
 177:../../tmk_core/protocol/lufa/lufa.c ****         Endpoint_Write_8(0);
 178:../../tmk_core/protocol/lufa/lufa.c **** 
 179:../../tmk_core/protocol/lufa/lufa.c ****     // flash senchar packet
 180:../../tmk_core/protocol/lufa/lufa.c ****     if (Endpoint_IsINReady()) {
 181:../../tmk_core/protocol/lufa/lufa.c ****         Endpoint_ClearIN();
 182:../../tmk_core/protocol/lufa/lufa.c ****     }
 183:../../tmk_core/protocol/lufa/lufa.c **** 
 184:../../tmk_core/protocol/lufa/lufa.c ****     Endpoint_SelectEndpoint(ep);
 185:../../tmk_core/protocol/lufa/lufa.c **** }
 186:../../tmk_core/protocol/lufa/lufa.c **** #else
 187:../../tmk_core/protocol/lufa/lufa.c **** static void Console_Task(void)
 188:../../tmk_core/protocol/lufa/lufa.c **** {
 189:../../tmk_core/protocol/lufa/lufa.c **** }
 190:../../tmk_core/protocol/lufa/lufa.c **** #endif
 191:../../tmk_core/protocol/lufa/lufa.c **** 
 192:../../tmk_core/protocol/lufa/lufa.c **** 
 193:../../tmk_core/protocol/lufa/lufa.c **** /*******************************************************************************
 194:../../tmk_core/protocol/lufa/lufa.c ****  * USB Events
 195:../../tmk_core/protocol/lufa/lufa.c ****  ******************************************************************************/
 196:../../tmk_core/protocol/lufa/lufa.c **** /*
 197:../../tmk_core/protocol/lufa/lufa.c ****  * Event Order of Plug in:
 198:../../tmk_core/protocol/lufa/lufa.c ****  * 0) EVENT_USB_Device_Connect
 199:../../tmk_core/protocol/lufa/lufa.c ****  * 1) EVENT_USB_Device_Suspend
 200:../../tmk_core/protocol/lufa/lufa.c ****  * 2) EVENT_USB_Device_Reset
 201:../../tmk_core/protocol/lufa/lufa.c ****  * 3) EVENT_USB_Device_Wake
 202:../../tmk_core/protocol/lufa/lufa.c **** */
 203:../../tmk_core/protocol/lufa/lufa.c **** void EVENT_USB_Device_Connect(void)
 204:../../tmk_core/protocol/lufa/lufa.c **** {
 205:../../tmk_core/protocol/lufa/lufa.c ****     print("[C]");
 206:../../tmk_core/protocol/lufa/lufa.c ****     /* For battery powered device */
 207:../../tmk_core/protocol/lufa/lufa.c ****     if (!USB_IsInitialized) {
 208:../../tmk_core/protocol/lufa/lufa.c ****         USB_Disable();
 209:../../tmk_core/protocol/lufa/lufa.c ****         USB_Init();
 210:../../tmk_core/protocol/lufa/lufa.c ****         USB_Device_EnableSOFEvents();
 211:../../tmk_core/protocol/lufa/lufa.c ****     }
 212:../../tmk_core/protocol/lufa/lufa.c **** }
 213:../../tmk_core/protocol/lufa/lufa.c **** 
 214:../../tmk_core/protocol/lufa/lufa.c **** void EVENT_USB_Device_Disconnect(void)
 215:../../tmk_core/protocol/lufa/lufa.c **** {
 216:../../tmk_core/protocol/lufa/lufa.c ****     print("[D]");
 217:../../tmk_core/protocol/lufa/lufa.c ****     /* For battery powered device */
 218:../../tmk_core/protocol/lufa/lufa.c ****     USB_IsInitialized = false;
 219:../../tmk_core/protocol/lufa/lufa.c **** /* TODO: This doesn't work. After several plug in/outs can not be enumerated. 
 220:../../tmk_core/protocol/lufa/lufa.c ****     if (USB_IsInitialized) {
 221:../../tmk_core/protocol/lufa/lufa.c ****         USB_Disable();  // Disable all interrupts
 222:../../tmk_core/protocol/lufa/lufa.c **** 	USB_Controller_Enable();
 223:../../tmk_core/protocol/lufa/lufa.c ****         USB_INT_Enable(USB_INT_VBUSTI);
 224:../../tmk_core/protocol/lufa/lufa.c ****     }
 225:../../tmk_core/protocol/lufa/lufa.c **** */
 226:../../tmk_core/protocol/lufa/lufa.c **** }
 227:../../tmk_core/protocol/lufa/lufa.c **** 
 228:../../tmk_core/protocol/lufa/lufa.c **** void EVENT_USB_Device_Reset(void)
 229:../../tmk_core/protocol/lufa/lufa.c **** {
 230:../../tmk_core/protocol/lufa/lufa.c ****     print("[R]");
 231:../../tmk_core/protocol/lufa/lufa.c **** }
 232:../../tmk_core/protocol/lufa/lufa.c **** 
 233:../../tmk_core/protocol/lufa/lufa.c **** void EVENT_USB_Device_Suspend()
 234:../../tmk_core/protocol/lufa/lufa.c **** {
 235:../../tmk_core/protocol/lufa/lufa.c ****     print("[S]");
 236:../../tmk_core/protocol/lufa/lufa.c **** #ifdef SLEEP_LED_ENABLE
 237:../../tmk_core/protocol/lufa/lufa.c ****     sleep_led_enable();
 238:../../tmk_core/protocol/lufa/lufa.c **** #endif
 239:../../tmk_core/protocol/lufa/lufa.c **** }
 240:../../tmk_core/protocol/lufa/lufa.c **** 
 241:../../tmk_core/protocol/lufa/lufa.c **** void EVENT_USB_Device_WakeUp()
 242:../../tmk_core/protocol/lufa/lufa.c **** {
 243:../../tmk_core/protocol/lufa/lufa.c ****     print("[W]");
 244:../../tmk_core/protocol/lufa/lufa.c ****     suspend_wakeup_init();
 245:../../tmk_core/protocol/lufa/lufa.c **** 
 246:../../tmk_core/protocol/lufa/lufa.c **** #ifdef SLEEP_LED_ENABLE
 247:../../tmk_core/protocol/lufa/lufa.c ****     sleep_led_disable();
 248:../../tmk_core/protocol/lufa/lufa.c ****     // NOTE: converters may not accept this
 249:../../tmk_core/protocol/lufa/lufa.c ****     led_set(host_keyboard_leds());
 250:../../tmk_core/protocol/lufa/lufa.c **** #endif
 251:../../tmk_core/protocol/lufa/lufa.c **** }
 252:../../tmk_core/protocol/lufa/lufa.c **** 
 253:../../tmk_core/protocol/lufa/lufa.c **** #ifdef CONSOLE_ENABLE
 254:../../tmk_core/protocol/lufa/lufa.c **** static bool console_flush = false;
 255:../../tmk_core/protocol/lufa/lufa.c **** #define CONSOLE_FLUSH_SET(b)   do { \
 256:../../tmk_core/protocol/lufa/lufa.c ****     uint8_t sreg = SREG; cli(); console_flush = b; SREG = sreg; \
 257:../../tmk_core/protocol/lufa/lufa.c **** } while (0)
 258:../../tmk_core/protocol/lufa/lufa.c **** 
 259:../../tmk_core/protocol/lufa/lufa.c **** // called every 1ms
 260:../../tmk_core/protocol/lufa/lufa.c **** void EVENT_USB_Device_StartOfFrame(void)
 261:../../tmk_core/protocol/lufa/lufa.c **** {
 262:../../tmk_core/protocol/lufa/lufa.c ****     static uint8_t count;
 263:../../tmk_core/protocol/lufa/lufa.c ****     if (++count % 50) return;
 264:../../tmk_core/protocol/lufa/lufa.c ****     count = 0;
 265:../../tmk_core/protocol/lufa/lufa.c **** 
 266:../../tmk_core/protocol/lufa/lufa.c ****     if (!console_flush) return;
 267:../../tmk_core/protocol/lufa/lufa.c ****     Console_Task();
 268:../../tmk_core/protocol/lufa/lufa.c ****     console_flush = false;
 269:../../tmk_core/protocol/lufa/lufa.c **** }
 270:../../tmk_core/protocol/lufa/lufa.c **** #endif
 271:../../tmk_core/protocol/lufa/lufa.c **** 
 272:../../tmk_core/protocol/lufa/lufa.c **** /** Event handler for the USB_ConfigurationChanged event.
 273:../../tmk_core/protocol/lufa/lufa.c ****  * This is fired when the host sets the current configuration of the USB device after enumeration.
 274:../../tmk_core/protocol/lufa/lufa.c ****  *
 275:../../tmk_core/protocol/lufa/lufa.c ****  * ATMega32u2 supports dual bank(ping-pong mode) only on endpoint 3 and 4,
 276:../../tmk_core/protocol/lufa/lufa.c ****  * it is safe to use singl bank for all endpoints.
 277:../../tmk_core/protocol/lufa/lufa.c ****  */
 278:../../tmk_core/protocol/lufa/lufa.c **** void EVENT_USB_Device_ConfigurationChanged(void)
 279:../../tmk_core/protocol/lufa/lufa.c **** {
 280:../../tmk_core/protocol/lufa/lufa.c ****     bool ConfigSuccess = true;
 281:../../tmk_core/protocol/lufa/lufa.c **** 
 282:../../tmk_core/protocol/lufa/lufa.c ****     /* Setup Keyboard HID Report Endpoints */
 283:../../tmk_core/protocol/lufa/lufa.c ****     ConfigSuccess &= ENDPOINT_CONFIG(KEYBOARD_IN_EPNUM, EP_TYPE_INTERRUPT, ENDPOINT_DIR_IN,
 284:../../tmk_core/protocol/lufa/lufa.c ****                                      KEYBOARD_EPSIZE, ENDPOINT_BANK_SINGLE);
 285:../../tmk_core/protocol/lufa/lufa.c **** 
 286:../../tmk_core/protocol/lufa/lufa.c **** #ifdef MOUSE_ENABLE
 287:../../tmk_core/protocol/lufa/lufa.c ****     /* Setup Mouse HID Report Endpoint */
 288:../../tmk_core/protocol/lufa/lufa.c ****     ConfigSuccess &= ENDPOINT_CONFIG(MOUSE_IN_EPNUM, EP_TYPE_INTERRUPT, ENDPOINT_DIR_IN,
 289:../../tmk_core/protocol/lufa/lufa.c ****                                      MOUSE_EPSIZE, ENDPOINT_BANK_SINGLE);
 290:../../tmk_core/protocol/lufa/lufa.c **** #endif
 291:../../tmk_core/protocol/lufa/lufa.c **** 
 292:../../tmk_core/protocol/lufa/lufa.c **** #ifdef EXTRAKEY_ENABLE
 293:../../tmk_core/protocol/lufa/lufa.c ****     /* Setup Extra HID Report Endpoint */
 294:../../tmk_core/protocol/lufa/lufa.c ****     ConfigSuccess &= ENDPOINT_CONFIG(EXTRAKEY_IN_EPNUM, EP_TYPE_INTERRUPT, ENDPOINT_DIR_IN,
 295:../../tmk_core/protocol/lufa/lufa.c ****                                      EXTRAKEY_EPSIZE, ENDPOINT_BANK_SINGLE);
 296:../../tmk_core/protocol/lufa/lufa.c **** #endif
 297:../../tmk_core/protocol/lufa/lufa.c **** 
 298:../../tmk_core/protocol/lufa/lufa.c **** #ifdef CONSOLE_ENABLE
 299:../../tmk_core/protocol/lufa/lufa.c ****     /* Setup Console HID Report Endpoints */
 300:../../tmk_core/protocol/lufa/lufa.c ****     ConfigSuccess &= ENDPOINT_CONFIG(CONSOLE_IN_EPNUM, EP_TYPE_INTERRUPT, ENDPOINT_DIR_IN,
 301:../../tmk_core/protocol/lufa/lufa.c ****                                      CONSOLE_EPSIZE, ENDPOINT_BANK_SINGLE);
 302:../../tmk_core/protocol/lufa/lufa.c **** #if 0
 303:../../tmk_core/protocol/lufa/lufa.c ****     ConfigSuccess &= ENDPOINT_CONFIG(CONSOLE_OUT_EPNUM, EP_TYPE_INTERRUPT, ENDPOINT_DIR_OUT,
 304:../../tmk_core/protocol/lufa/lufa.c ****                                      CONSOLE_EPSIZE, ENDPOINT_BANK_SINGLE);
 305:../../tmk_core/protocol/lufa/lufa.c **** #endif
 306:../../tmk_core/protocol/lufa/lufa.c **** #endif
 307:../../tmk_core/protocol/lufa/lufa.c **** 
 308:../../tmk_core/protocol/lufa/lufa.c **** #ifdef NKRO_ENABLE
 309:../../tmk_core/protocol/lufa/lufa.c ****     /* Setup NKRO HID Report Endpoints */
 310:../../tmk_core/protocol/lufa/lufa.c ****     ConfigSuccess &= ENDPOINT_CONFIG(NKRO_IN_EPNUM, EP_TYPE_INTERRUPT, ENDPOINT_DIR_IN,
 311:../../tmk_core/protocol/lufa/lufa.c ****                                      NKRO_EPSIZE, ENDPOINT_BANK_SINGLE);
 312:../../tmk_core/protocol/lufa/lufa.c **** #endif
 313:../../tmk_core/protocol/lufa/lufa.c **** 
 314:../../tmk_core/protocol/lufa/lufa.c **** #ifdef MIDI_ENABLE
 315:../../tmk_core/protocol/lufa/lufa.c ****     ConfigSuccess &= Endpoint_ConfigureEndpoint(MIDI_STREAM_IN_EPADDR, EP_TYPE_BULK, MIDI_STREAM_EP
 316:../../tmk_core/protocol/lufa/lufa.c ****     ConfigSuccess &= Endpoint_ConfigureEndpoint(MIDI_STREAM_OUT_EPADDR, EP_TYPE_BULK, MIDI_STREAM_E
 317:../../tmk_core/protocol/lufa/lufa.c **** #endif
 318:../../tmk_core/protocol/lufa/lufa.c **** }
 319:../../tmk_core/protocol/lufa/lufa.c **** 
 320:../../tmk_core/protocol/lufa/lufa.c **** /*
 321:../../tmk_core/protocol/lufa/lufa.c **** Appendix G: HID Request Support Requirements
 322:../../tmk_core/protocol/lufa/lufa.c **** 
 323:../../tmk_core/protocol/lufa/lufa.c **** The following table enumerates the requests that need to be supported by various types of HID class
 324:../../tmk_core/protocol/lufa/lufa.c **** 
 325:../../tmk_core/protocol/lufa/lufa.c **** Device type     GetReport   SetReport   GetIdle     SetIdle     GetProtocol SetProtocol
 326:../../tmk_core/protocol/lufa/lufa.c **** ------------------------------------------------------------------------------------------
 327:../../tmk_core/protocol/lufa/lufa.c **** Boot Mouse      Required    Optional    Optional    Optional    Required    Required
 328:../../tmk_core/protocol/lufa/lufa.c **** Non-Boot Mouse  Required    Optional    Optional    Optional    Optional    Optional
 329:../../tmk_core/protocol/lufa/lufa.c **** Boot Keyboard   Required    Optional    Required    Required    Required    Required
 330:../../tmk_core/protocol/lufa/lufa.c **** Non-Boot Keybrd Required    Optional    Required    Required    Optional    Optional
 331:../../tmk_core/protocol/lufa/lufa.c **** Other Device    Required    Optional    Optional    Optional    Optional    Optional
 332:../../tmk_core/protocol/lufa/lufa.c **** */
 333:../../tmk_core/protocol/lufa/lufa.c **** /** Event handler for the USB_ControlRequest event.
 334:../../tmk_core/protocol/lufa/lufa.c ****  *  This is fired before passing along unhandled control requests to the library for processing int
 335:../../tmk_core/protocol/lufa/lufa.c ****  */
 336:../../tmk_core/protocol/lufa/lufa.c **** void EVENT_USB_Device_ControlRequest(void)
 337:../../tmk_core/protocol/lufa/lufa.c **** {
 338:../../tmk_core/protocol/lufa/lufa.c ****     uint8_t* ReportData = NULL;
 339:../../tmk_core/protocol/lufa/lufa.c ****     uint8_t  ReportSize = 0;
 340:../../tmk_core/protocol/lufa/lufa.c **** 
 341:../../tmk_core/protocol/lufa/lufa.c ****     /* Handle HID Class specific requests */
 342:../../tmk_core/protocol/lufa/lufa.c ****     switch (USB_ControlRequest.bRequest)
 343:../../tmk_core/protocol/lufa/lufa.c ****     {
 344:../../tmk_core/protocol/lufa/lufa.c ****         case HID_REQ_GetReport:
 345:../../tmk_core/protocol/lufa/lufa.c ****             if (USB_ControlRequest.bmRequestType == (REQDIR_DEVICETOHOST | REQTYPE_CLASS | REQREC_I
 346:../../tmk_core/protocol/lufa/lufa.c ****             {
 347:../../tmk_core/protocol/lufa/lufa.c ****                 Endpoint_ClearSETUP();
 348:../../tmk_core/protocol/lufa/lufa.c **** 
 349:../../tmk_core/protocol/lufa/lufa.c ****                 // Interface
 350:../../tmk_core/protocol/lufa/lufa.c ****                 switch (USB_ControlRequest.wIndex) {
 351:../../tmk_core/protocol/lufa/lufa.c ****                 case KEYBOARD_INTERFACE:
 352:../../tmk_core/protocol/lufa/lufa.c ****                     // TODO: test/check
 353:../../tmk_core/protocol/lufa/lufa.c ****                     ReportData = (uint8_t*)&keyboard_report_sent;
 354:../../tmk_core/protocol/lufa/lufa.c ****                     ReportSize = sizeof(keyboard_report_sent);
 355:../../tmk_core/protocol/lufa/lufa.c ****                     break;
 356:../../tmk_core/protocol/lufa/lufa.c ****                 }
 357:../../tmk_core/protocol/lufa/lufa.c **** 
 358:../../tmk_core/protocol/lufa/lufa.c ****                 /* Write the report data to the control endpoint */
 359:../../tmk_core/protocol/lufa/lufa.c ****                 Endpoint_Write_Control_Stream_LE(ReportData, ReportSize);
 360:../../tmk_core/protocol/lufa/lufa.c ****                 Endpoint_ClearOUT();
 361:../../tmk_core/protocol/lufa/lufa.c ****             }
 362:../../tmk_core/protocol/lufa/lufa.c **** 
 363:../../tmk_core/protocol/lufa/lufa.c ****             break;
 364:../../tmk_core/protocol/lufa/lufa.c ****         case HID_REQ_SetReport:
 365:../../tmk_core/protocol/lufa/lufa.c ****             if (USB_ControlRequest.bmRequestType == (REQDIR_HOSTTODEVICE | REQTYPE_CLASS | REQREC_I
 366:../../tmk_core/protocol/lufa/lufa.c ****             {
 367:../../tmk_core/protocol/lufa/lufa.c **** 
 368:../../tmk_core/protocol/lufa/lufa.c ****                 // Interface
 369:../../tmk_core/protocol/lufa/lufa.c ****                 switch (USB_ControlRequest.wIndex) {
 370:../../tmk_core/protocol/lufa/lufa.c ****                 case KEYBOARD_INTERFACE:
 371:../../tmk_core/protocol/lufa/lufa.c **** #ifdef NKRO_ENABLE
 372:../../tmk_core/protocol/lufa/lufa.c ****                 case NKRO_INTERFACE:
 373:../../tmk_core/protocol/lufa/lufa.c **** #endif
 374:../../tmk_core/protocol/lufa/lufa.c ****                     Endpoint_ClearSETUP();
 375:../../tmk_core/protocol/lufa/lufa.c **** 
 376:../../tmk_core/protocol/lufa/lufa.c ****                     while (!(Endpoint_IsOUTReceived())) {
 377:../../tmk_core/protocol/lufa/lufa.c ****                         if (USB_DeviceState == DEVICE_STATE_Unattached)
 378:../../tmk_core/protocol/lufa/lufa.c ****                           return;
 379:../../tmk_core/protocol/lufa/lufa.c ****                     }
 380:../../tmk_core/protocol/lufa/lufa.c ****                     keyboard_led_stats = Endpoint_Read_8();
 381:../../tmk_core/protocol/lufa/lufa.c **** 
 382:../../tmk_core/protocol/lufa/lufa.c ****                     Endpoint_ClearOUT();
 383:../../tmk_core/protocol/lufa/lufa.c ****                     Endpoint_ClearStatusStage();
 384:../../tmk_core/protocol/lufa/lufa.c ****                     break;
 385:../../tmk_core/protocol/lufa/lufa.c ****                 }
 386:../../tmk_core/protocol/lufa/lufa.c **** 
 387:../../tmk_core/protocol/lufa/lufa.c ****             }
 388:../../tmk_core/protocol/lufa/lufa.c **** 
 389:../../tmk_core/protocol/lufa/lufa.c ****             break;
 390:../../tmk_core/protocol/lufa/lufa.c **** 
 391:../../tmk_core/protocol/lufa/lufa.c ****         case HID_REQ_GetProtocol:
 392:../../tmk_core/protocol/lufa/lufa.c ****             if (USB_ControlRequest.bmRequestType == (REQDIR_DEVICETOHOST | REQTYPE_CLASS | REQREC_I
 393:../../tmk_core/protocol/lufa/lufa.c ****             {
 394:../../tmk_core/protocol/lufa/lufa.c ****                 if (USB_ControlRequest.wIndex == KEYBOARD_INTERFACE) {
 395:../../tmk_core/protocol/lufa/lufa.c ****                     Endpoint_ClearSETUP();
 396:../../tmk_core/protocol/lufa/lufa.c ****                     while (!(Endpoint_IsINReady()));
 397:../../tmk_core/protocol/lufa/lufa.c ****                     Endpoint_Write_8(keyboard_protocol);
 398:../../tmk_core/protocol/lufa/lufa.c ****                     Endpoint_ClearIN();
 399:../../tmk_core/protocol/lufa/lufa.c ****                     Endpoint_ClearStatusStage();
 400:../../tmk_core/protocol/lufa/lufa.c ****                 }
 401:../../tmk_core/protocol/lufa/lufa.c ****             }
 402:../../tmk_core/protocol/lufa/lufa.c **** 
 403:../../tmk_core/protocol/lufa/lufa.c ****             break;
 404:../../tmk_core/protocol/lufa/lufa.c ****         case HID_REQ_SetProtocol:
 405:../../tmk_core/protocol/lufa/lufa.c ****             if (USB_ControlRequest.bmRequestType == (REQDIR_HOSTTODEVICE | REQTYPE_CLASS | REQREC_I
 406:../../tmk_core/protocol/lufa/lufa.c ****             {
 407:../../tmk_core/protocol/lufa/lufa.c ****                 if (USB_ControlRequest.wIndex == KEYBOARD_INTERFACE) {
 408:../../tmk_core/protocol/lufa/lufa.c ****                     Endpoint_ClearSETUP();
 409:../../tmk_core/protocol/lufa/lufa.c ****                     Endpoint_ClearStatusStage();
 410:../../tmk_core/protocol/lufa/lufa.c **** 
 411:../../tmk_core/protocol/lufa/lufa.c ****                     keyboard_protocol = (USB_ControlRequest.wValue & 0xFF);
 412:../../tmk_core/protocol/lufa/lufa.c ****                     clear_keyboard();
 413:../../tmk_core/protocol/lufa/lufa.c ****                 }
 414:../../tmk_core/protocol/lufa/lufa.c ****             }
 415:../../tmk_core/protocol/lufa/lufa.c **** 
 416:../../tmk_core/protocol/lufa/lufa.c ****             break;
 417:../../tmk_core/protocol/lufa/lufa.c ****         case HID_REQ_SetIdle:
 418:../../tmk_core/protocol/lufa/lufa.c ****             if (USB_ControlRequest.bmRequestType == (REQDIR_HOSTTODEVICE | REQTYPE_CLASS | REQREC_I
 419:../../tmk_core/protocol/lufa/lufa.c ****             {
 420:../../tmk_core/protocol/lufa/lufa.c ****                 Endpoint_ClearSETUP();
 421:../../tmk_core/protocol/lufa/lufa.c ****                 Endpoint_ClearStatusStage();
 422:../../tmk_core/protocol/lufa/lufa.c **** 
 423:../../tmk_core/protocol/lufa/lufa.c ****                 keyboard_idle = ((USB_ControlRequest.wValue & 0xFF00) >> 8);
 424:../../tmk_core/protocol/lufa/lufa.c ****             }
 425:../../tmk_core/protocol/lufa/lufa.c **** 
 426:../../tmk_core/protocol/lufa/lufa.c ****             break;
 427:../../tmk_core/protocol/lufa/lufa.c ****         case HID_REQ_GetIdle:
 428:../../tmk_core/protocol/lufa/lufa.c ****             if (USB_ControlRequest.bmRequestType == (REQDIR_DEVICETOHOST | REQTYPE_CLASS | REQREC_I
 429:../../tmk_core/protocol/lufa/lufa.c ****             {
 430:../../tmk_core/protocol/lufa/lufa.c ****                 Endpoint_ClearSETUP();
 431:../../tmk_core/protocol/lufa/lufa.c ****                 while (!(Endpoint_IsINReady()));
 432:../../tmk_core/protocol/lufa/lufa.c ****                 Endpoint_Write_8(keyboard_idle);
 433:../../tmk_core/protocol/lufa/lufa.c ****                 Endpoint_ClearIN();
 434:../../tmk_core/protocol/lufa/lufa.c ****                 Endpoint_ClearStatusStage();
 435:../../tmk_core/protocol/lufa/lufa.c ****             }
 436:../../tmk_core/protocol/lufa/lufa.c **** 
 437:../../tmk_core/protocol/lufa/lufa.c ****             break;
 438:../../tmk_core/protocol/lufa/lufa.c ****     }
 439:../../tmk_core/protocol/lufa/lufa.c **** }
 440:../../tmk_core/protocol/lufa/lufa.c **** 
 441:../../tmk_core/protocol/lufa/lufa.c **** /*******************************************************************************
 442:../../tmk_core/protocol/lufa/lufa.c ****  * Host driver 
 443:../../tmk_core/protocol/lufa/lufa.c ****  ******************************************************************************/
 444:../../tmk_core/protocol/lufa/lufa.c **** static uint8_t keyboard_leds(void)
 445:../../tmk_core/protocol/lufa/lufa.c **** {
  15               		.loc 1 445 0
  16               		.cfi_startproc
  17               	/* prologue: function */
  18               	/* frame size = 0 */
  19               	/* stack size = 0 */
  20               	.L__stack_usage = 0
 446:../../tmk_core/protocol/lufa/lufa.c ****     return keyboard_led_stats;
 447:../../tmk_core/protocol/lufa/lufa.c **** }
  21               		.loc 1 447 0
  22 0000 8091 0000 		lds r24,keyboard_led_stats
  23 0004 0895      		ret
  24               		.cfi_endproc
  25               	.LFE113:
  27               		.section	.text.send_consumer,"ax",@progbits
  29               	send_consumer:
  30               	.LFB117:
 448:../../tmk_core/protocol/lufa/lufa.c **** 
 449:../../tmk_core/protocol/lufa/lufa.c **** static void send_keyboard(report_keyboard_t *report)
 450:../../tmk_core/protocol/lufa/lufa.c **** {
 451:../../tmk_core/protocol/lufa/lufa.c **** 
 452:../../tmk_core/protocol/lufa/lufa.c **** #ifdef BLUETOOTH_ENABLE
 453:../../tmk_core/protocol/lufa/lufa.c ****     bluefruit_serial_send(0xFD);
 454:../../tmk_core/protocol/lufa/lufa.c ****     for (uint8_t i = 0; i < KEYBOARD_EPSIZE; i++) {
 455:../../tmk_core/protocol/lufa/lufa.c ****         bluefruit_serial_send(report->raw[i]);
 456:../../tmk_core/protocol/lufa/lufa.c ****     }
 457:../../tmk_core/protocol/lufa/lufa.c **** #endif
 458:../../tmk_core/protocol/lufa/lufa.c **** 
 459:../../tmk_core/protocol/lufa/lufa.c ****     uint8_t timeout = 255;
 460:../../tmk_core/protocol/lufa/lufa.c **** 
 461:../../tmk_core/protocol/lufa/lufa.c ****     if (USB_DeviceState != DEVICE_STATE_Configured)
 462:../../tmk_core/protocol/lufa/lufa.c ****         return;
 463:../../tmk_core/protocol/lufa/lufa.c **** 
 464:../../tmk_core/protocol/lufa/lufa.c ****     /* Select the Keyboard Report Endpoint */
 465:../../tmk_core/protocol/lufa/lufa.c **** #ifdef NKRO_ENABLE
 466:../../tmk_core/protocol/lufa/lufa.c ****     if (keyboard_protocol && keyboard_nkro) {
 467:../../tmk_core/protocol/lufa/lufa.c ****         /* Report protocol - NKRO */
 468:../../tmk_core/protocol/lufa/lufa.c ****         Endpoint_SelectEndpoint(NKRO_IN_EPNUM);
 469:../../tmk_core/protocol/lufa/lufa.c **** 
 470:../../tmk_core/protocol/lufa/lufa.c ****         /* Check if write ready for a polling interval around 1ms */
 471:../../tmk_core/protocol/lufa/lufa.c ****         while (timeout-- && !Endpoint_IsReadWriteAllowed()) _delay_us(4);
 472:../../tmk_core/protocol/lufa/lufa.c ****         if (!Endpoint_IsReadWriteAllowed()) return;
 473:../../tmk_core/protocol/lufa/lufa.c **** 
 474:../../tmk_core/protocol/lufa/lufa.c ****         /* Write Keyboard Report Data */
 475:../../tmk_core/protocol/lufa/lufa.c ****         Endpoint_Write_Stream_LE(report, NKRO_EPSIZE, NULL);
 476:../../tmk_core/protocol/lufa/lufa.c ****     }
 477:../../tmk_core/protocol/lufa/lufa.c ****     else
 478:../../tmk_core/protocol/lufa/lufa.c **** #endif
 479:../../tmk_core/protocol/lufa/lufa.c ****     {
 480:../../tmk_core/protocol/lufa/lufa.c ****         /* Boot protocol */
 481:../../tmk_core/protocol/lufa/lufa.c ****         Endpoint_SelectEndpoint(KEYBOARD_IN_EPNUM);
 482:../../tmk_core/protocol/lufa/lufa.c **** 
 483:../../tmk_core/protocol/lufa/lufa.c ****         /* Check if write ready for a polling interval around 10ms */
 484:../../tmk_core/protocol/lufa/lufa.c ****         while (timeout-- && !Endpoint_IsReadWriteAllowed()) _delay_us(40);
 485:../../tmk_core/protocol/lufa/lufa.c ****         if (!Endpoint_IsReadWriteAllowed()) return;
 486:../../tmk_core/protocol/lufa/lufa.c **** 
 487:../../tmk_core/protocol/lufa/lufa.c ****         /* Write Keyboard Report Data */
 488:../../tmk_core/protocol/lufa/lufa.c ****         Endpoint_Write_Stream_LE(report, KEYBOARD_EPSIZE, NULL);
 489:../../tmk_core/protocol/lufa/lufa.c ****     }
 490:../../tmk_core/protocol/lufa/lufa.c **** 
 491:../../tmk_core/protocol/lufa/lufa.c ****     /* Finalize the stream transfer to send the last packet */
 492:../../tmk_core/protocol/lufa/lufa.c ****     Endpoint_ClearIN();
 493:../../tmk_core/protocol/lufa/lufa.c **** 
 494:../../tmk_core/protocol/lufa/lufa.c ****     keyboard_report_sent = *report;
 495:../../tmk_core/protocol/lufa/lufa.c **** }
 496:../../tmk_core/protocol/lufa/lufa.c **** 
 497:../../tmk_core/protocol/lufa/lufa.c **** static void send_mouse(report_mouse_t *report)
 498:../../tmk_core/protocol/lufa/lufa.c **** {
 499:../../tmk_core/protocol/lufa/lufa.c **** #ifdef MOUSE_ENABLE
 500:../../tmk_core/protocol/lufa/lufa.c **** 
 501:../../tmk_core/protocol/lufa/lufa.c **** #ifdef BLUETOOTH_ENABLE
 502:../../tmk_core/protocol/lufa/lufa.c ****     bluefruit_serial_send(0xFD);
 503:../../tmk_core/protocol/lufa/lufa.c ****     bluefruit_serial_send(0x00);
 504:../../tmk_core/protocol/lufa/lufa.c ****     bluefruit_serial_send(0x03);
 505:../../tmk_core/protocol/lufa/lufa.c ****     bluefruit_serial_send(report->buttons);
 506:../../tmk_core/protocol/lufa/lufa.c ****     bluefruit_serial_send(report->x);
 507:../../tmk_core/protocol/lufa/lufa.c ****     bluefruit_serial_send(report->y);
 508:../../tmk_core/protocol/lufa/lufa.c ****     bluefruit_serial_send(report->v); // should try sending the wheel v here
 509:../../tmk_core/protocol/lufa/lufa.c ****     bluefruit_serial_send(report->h); // should try sending the wheel h here
 510:../../tmk_core/protocol/lufa/lufa.c ****     bluefruit_serial_send(0x00);
 511:../../tmk_core/protocol/lufa/lufa.c **** #endif
 512:../../tmk_core/protocol/lufa/lufa.c **** 
 513:../../tmk_core/protocol/lufa/lufa.c ****     uint8_t timeout = 255;
 514:../../tmk_core/protocol/lufa/lufa.c **** 
 515:../../tmk_core/protocol/lufa/lufa.c ****     if (USB_DeviceState != DEVICE_STATE_Configured)
 516:../../tmk_core/protocol/lufa/lufa.c ****         return;
 517:../../tmk_core/protocol/lufa/lufa.c **** 
 518:../../tmk_core/protocol/lufa/lufa.c ****     /* Select the Mouse Report Endpoint */
 519:../../tmk_core/protocol/lufa/lufa.c ****     Endpoint_SelectEndpoint(MOUSE_IN_EPNUM);
 520:../../tmk_core/protocol/lufa/lufa.c **** 
 521:../../tmk_core/protocol/lufa/lufa.c ****     /* Check if write ready for a polling interval around 10ms */
 522:../../tmk_core/protocol/lufa/lufa.c ****     while (timeout-- && !Endpoint_IsReadWriteAllowed()) _delay_us(40);
 523:../../tmk_core/protocol/lufa/lufa.c ****     if (!Endpoint_IsReadWriteAllowed()) return;
 524:../../tmk_core/protocol/lufa/lufa.c **** 
 525:../../tmk_core/protocol/lufa/lufa.c ****     /* Write Mouse Report Data */
 526:../../tmk_core/protocol/lufa/lufa.c ****     Endpoint_Write_Stream_LE(report, sizeof(report_mouse_t), NULL);
 527:../../tmk_core/protocol/lufa/lufa.c **** 
 528:../../tmk_core/protocol/lufa/lufa.c ****     /* Finalize the stream transfer to send the last packet */
 529:../../tmk_core/protocol/lufa/lufa.c ****     Endpoint_ClearIN();
 530:../../tmk_core/protocol/lufa/lufa.c **** #endif
 531:../../tmk_core/protocol/lufa/lufa.c **** }
 532:../../tmk_core/protocol/lufa/lufa.c **** 
 533:../../tmk_core/protocol/lufa/lufa.c **** static void send_system(uint16_t data)
 534:../../tmk_core/protocol/lufa/lufa.c **** {
 535:../../tmk_core/protocol/lufa/lufa.c ****     uint8_t timeout = 255;
 536:../../tmk_core/protocol/lufa/lufa.c **** 
 537:../../tmk_core/protocol/lufa/lufa.c ****     if (USB_DeviceState != DEVICE_STATE_Configured)
 538:../../tmk_core/protocol/lufa/lufa.c ****         return;
 539:../../tmk_core/protocol/lufa/lufa.c **** 
 540:../../tmk_core/protocol/lufa/lufa.c ****     report_extra_t r = {
 541:../../tmk_core/protocol/lufa/lufa.c ****         .report_id = REPORT_ID_SYSTEM,
 542:../../tmk_core/protocol/lufa/lufa.c ****         .usage = data
 543:../../tmk_core/protocol/lufa/lufa.c ****     };
 544:../../tmk_core/protocol/lufa/lufa.c ****     Endpoint_SelectEndpoint(EXTRAKEY_IN_EPNUM);
 545:../../tmk_core/protocol/lufa/lufa.c **** 
 546:../../tmk_core/protocol/lufa/lufa.c ****     /* Check if write ready for a polling interval around 10ms */
 547:../../tmk_core/protocol/lufa/lufa.c ****     while (timeout-- && !Endpoint_IsReadWriteAllowed()) _delay_us(40);
 548:../../tmk_core/protocol/lufa/lufa.c ****     if (!Endpoint_IsReadWriteAllowed()) return;
 549:../../tmk_core/protocol/lufa/lufa.c **** 
 550:../../tmk_core/protocol/lufa/lufa.c ****     Endpoint_Write_Stream_LE(&r, sizeof(report_extra_t), NULL);
 551:../../tmk_core/protocol/lufa/lufa.c ****     Endpoint_ClearIN();
 552:../../tmk_core/protocol/lufa/lufa.c **** }
 553:../../tmk_core/protocol/lufa/lufa.c **** 
 554:../../tmk_core/protocol/lufa/lufa.c **** static void send_consumer(uint16_t data)
 555:../../tmk_core/protocol/lufa/lufa.c **** {
  31               		.loc 1 555 0
  32               		.cfi_startproc
  33               	.LVL0:
  34 0000 CF93      		push r28
  35               	.LCFI0:
  36               		.cfi_def_cfa_offset 3
  37               		.cfi_offset 28, -2
  38 0002 DF93      		push r29
  39               	.LCFI1:
  40               		.cfi_def_cfa_offset 4
  41               		.cfi_offset 29, -3
  42 0004 00D0      		rcall .
  43 0006 1F92      		push __zero_reg__
  44               	.LCFI2:
  45               		.cfi_def_cfa_offset 7
  46 0008 CDB7      		in r28,__SP_L__
  47 000a DEB7      		in r29,__SP_H__
  48               	.LCFI3:
  49               		.cfi_def_cfa_register 28
  50               	/* prologue: function */
  51               	/* frame size = 3 */
  52               	/* stack size = 5 */
  53               	.L__stack_usage = 5
  54               	.LVL1:
 556:../../tmk_core/protocol/lufa/lufa.c **** 
 557:../../tmk_core/protocol/lufa/lufa.c **** #ifdef BLUETOOTH_ENABLE
 558:../../tmk_core/protocol/lufa/lufa.c ****     static uint16_t last_data = 0;
 559:../../tmk_core/protocol/lufa/lufa.c ****     if (data == last_data) return;
 560:../../tmk_core/protocol/lufa/lufa.c ****     last_data = data;
 561:../../tmk_core/protocol/lufa/lufa.c ****     uint16_t bitmap = CONSUMER2BLUEFRUIT(data);
 562:../../tmk_core/protocol/lufa/lufa.c ****     bluefruit_serial_send(0xFD);
 563:../../tmk_core/protocol/lufa/lufa.c ****     bluefruit_serial_send(0x00);
 564:../../tmk_core/protocol/lufa/lufa.c ****     bluefruit_serial_send(0x02);
 565:../../tmk_core/protocol/lufa/lufa.c ****     bluefruit_serial_send((bitmap>>8)&0xFF);
 566:../../tmk_core/protocol/lufa/lufa.c ****     bluefruit_serial_send(bitmap&0xFF); 
 567:../../tmk_core/protocol/lufa/lufa.c ****     bluefruit_serial_send(0x00);
 568:../../tmk_core/protocol/lufa/lufa.c ****     bluefruit_serial_send(0x00);
 569:../../tmk_core/protocol/lufa/lufa.c ****     bluefruit_serial_send(0x00);
 570:../../tmk_core/protocol/lufa/lufa.c ****     bluefruit_serial_send(0x00);
 571:../../tmk_core/protocol/lufa/lufa.c **** #endif
 572:../../tmk_core/protocol/lufa/lufa.c **** 
 573:../../tmk_core/protocol/lufa/lufa.c ****     uint8_t timeout = 255;
 574:../../tmk_core/protocol/lufa/lufa.c **** 
 575:../../tmk_core/protocol/lufa/lufa.c ****     if (USB_DeviceState != DEVICE_STATE_Configured)
  55               		.loc 1 575 0
  56 000c 2091 0000 		lds r18,USB_DeviceState
  57 0010 2430      		cpi r18,lo8(4)
  58 0012 01F4      		brne .L2
 576:../../tmk_core/protocol/lufa/lufa.c ****         return;
 577:../../tmk_core/protocol/lufa/lufa.c **** 
 578:../../tmk_core/protocol/lufa/lufa.c ****     report_extra_t r = {
  59               		.loc 1 578 0
  60 0014 23E0      		ldi r18,lo8(3)
  61 0016 2983      		std Y+1,r18
  62 0018 9B83      		std Y+3,r25
  63 001a 8A83      		std Y+2,r24
  64               	.LVL2:
  65               	.LBB172:
  66               	.LBB173:
  67               		.file 2 "../../tmk_core/protocol/lufa/LUFA-git/LUFA/Drivers/USB/Core/AVR8/../AVR8/Endpoint_AVR8.h"
   1:../../tmk_core/protocol/lufa/LUFA-git/LUFA/Drivers/USB/Core/AVR8/../AVR8/Endpoint_AVR8.h **** /*
   2:../../tmk_core/protocol/lufa/LUFA-git/LUFA/Drivers/USB/Core/AVR8/../AVR8/Endpoint_AVR8.h ****              LUFA Library
   3:../../tmk_core/protocol/lufa/LUFA-git/LUFA/Drivers/USB/Core/AVR8/../AVR8/Endpoint_AVR8.h ****      Copyright (C) Dean Camera, 2014.
   4:../../tmk_core/protocol/lufa/LUFA-git/LUFA/Drivers/USB/Core/AVR8/../AVR8/Endpoint_AVR8.h **** 
   5:../../tmk_core/protocol/lufa/LUFA-git/LUFA/Drivers/USB/Core/AVR8/../AVR8/Endpoint_AVR8.h ****   dean [at] fourwalledcubicle [dot] com
   6:../../tmk_core/protocol/lufa/LUFA-git/LUFA/Drivers/USB/Core/AVR8/../AVR8/Endpoint_AVR8.h ****            www.lufa-lib.org
   7:../../tmk_core/protocol/lufa/LUFA-git/LUFA/Drivers/USB/Core/AVR8/../AVR8/Endpoint_AVR8.h **** */
   8:../../tmk_core/protocol/lufa/LUFA-git/LUFA/Drivers/USB/Core/AVR8/../AVR8/Endpoint_AVR8.h **** 
   9:../../tmk_core/protocol/lufa/LUFA-git/LUFA/Drivers/USB/Core/AVR8/../AVR8/Endpoint_AVR8.h **** /*
  10:../../tmk_core/protocol/lufa/LUFA-git/LUFA/Drivers/USB/Core/AVR8/../AVR8/Endpoint_AVR8.h ****   Copyright 2014  Dean Camera (dean [at] fourwalledcubicle [dot] com)
  11:../../tmk_core/protocol/lufa/LUFA-git/LUFA/Drivers/USB/Core/AVR8/../AVR8/Endpoint_AVR8.h **** 
  12:../../tmk_core/protocol/lufa/LUFA-git/LUFA/Drivers/USB/Core/AVR8/../AVR8/Endpoint_AVR8.h ****   Permission to use, copy, modify, distribute, and sell this
  13:../../tmk_core/protocol/lufa/LUFA-git/LUFA/Drivers/USB/Core/AVR8/../AVR8/Endpoint_AVR8.h ****   software and its documentation for any purpose is hereby granted
  14:../../tmk_core/protocol/lufa/LUFA-git/LUFA/Drivers/USB/Core/AVR8/../AVR8/Endpoint_AVR8.h ****   without fee, provided that the above copyright notice appear in
  15:../../tmk_core/protocol/lufa/LUFA-git/LUFA/Drivers/USB/Core/AVR8/../AVR8/Endpoint_AVR8.h ****   all copies and that both that the copyright notice and this
  16:../../tmk_core/protocol/lufa/LUFA-git/LUFA/Drivers/USB/Core/AVR8/../AVR8/Endpoint_AVR8.h ****   permission notice and warranty disclaimer appear in supporting
  17:../../tmk_core/protocol/lufa/LUFA-git/LUFA/Drivers/USB/Core/AVR8/../AVR8/Endpoint_AVR8.h ****   documentation, and that the name of the author not be used in
  18:../../tmk_core/protocol/lufa/LUFA-git/LUFA/Drivers/USB/Core/AVR8/../AVR8/Endpoint_AVR8.h ****   advertising or publicity pertaining to distribution of the
  19:../../tmk_core/protocol/lufa/LUFA-git/LUFA/Drivers/USB/Core/AVR8/../AVR8/Endpoint_AVR8.h ****   software without specific, written prior permission.
  20:../../tmk_core/protocol/lufa/LUFA-git/LUFA/Drivers/USB/Core/AVR8/../AVR8/Endpoint_AVR8.h **** 
  21:../../tmk_core/protocol/lufa/LUFA-git/LUFA/Drivers/USB/Core/AVR8/../AVR8/Endpoint_AVR8.h ****   The author disclaims all warranties with regard to this
  22:../../tmk_core/protocol/lufa/LUFA-git/LUFA/Drivers/USB/Core/AVR8/../AVR8/Endpoint_AVR8.h ****   software, including all implied warranties of merchantability
  23:../../tmk_core/protocol/lufa/LUFA-git/LUFA/Drivers/USB/Core/AVR8/../AVR8/Endpoint_AVR8.h ****   and fitness.  In no event shall the author be liable for any
  24:../../tmk_core/protocol/lufa/LUFA-git/LUFA/Drivers/USB/Core/AVR8/../AVR8/Endpoint_AVR8.h ****   special, indirect or consequential damages or any damages
  25:../../tmk_core/protocol/lufa/LUFA-git/LUFA/Drivers/USB/Core/AVR8/../AVR8/Endpoint_AVR8.h ****   whatsoever resulting from loss of use, data or profits, whether
  26:../../tmk_core/protocol/lufa/LUFA-git/LUFA/Drivers/USB/Core/AVR8/../AVR8/Endpoint_AVR8.h ****   in an action of contract, negligence or other tortious action,
  27:../../tmk_core/protocol/lufa/LUFA-git/LUFA/Drivers/USB/Core/AVR8/../AVR8/Endpoint_AVR8.h ****   arising out of or in connection with the use or performance of
  28:../../tmk_core/protocol/lufa/LUFA-git/LUFA/Drivers/USB/Core/AVR8/../AVR8/Endpoint_AVR8.h ****   this software.
  29:../../tmk_core/protocol/lufa/LUFA-git/LUFA/Drivers/USB/Core/AVR8/../AVR8/Endpoint_AVR8.h **** */
  30:../../tmk_core/protocol/lufa/LUFA-git/LUFA/Drivers/USB/Core/AVR8/../AVR8/Endpoint_AVR8.h **** 
  31:../../tmk_core/protocol/lufa/LUFA-git/LUFA/Drivers/USB/Core/AVR8/../AVR8/Endpoint_AVR8.h **** /** \file
  32:../../tmk_core/protocol/lufa/LUFA-git/LUFA/Drivers/USB/Core/AVR8/../AVR8/Endpoint_AVR8.h ****  *  \brief USB Endpoint definitions for the AVR8 microcontrollers.
  33:../../tmk_core/protocol/lufa/LUFA-git/LUFA/Drivers/USB/Core/AVR8/../AVR8/Endpoint_AVR8.h ****  *  \copydetails Group_EndpointManagement_AVR8
  34:../../tmk_core/protocol/lufa/LUFA-git/LUFA/Drivers/USB/Core/AVR8/../AVR8/Endpoint_AVR8.h ****  *
  35:../../tmk_core/protocol/lufa/LUFA-git/LUFA/Drivers/USB/Core/AVR8/../AVR8/Endpoint_AVR8.h ****  *  \note This file should not be included directly. It is automatically included as needed by the 
  36:../../tmk_core/protocol/lufa/LUFA-git/LUFA/Drivers/USB/Core/AVR8/../AVR8/Endpoint_AVR8.h ****  *        dispatch header located in LUFA/Drivers/USB/USB.h.
  37:../../tmk_core/protocol/lufa/LUFA-git/LUFA/Drivers/USB/Core/AVR8/../AVR8/Endpoint_AVR8.h ****  */
  38:../../tmk_core/protocol/lufa/LUFA-git/LUFA/Drivers/USB/Core/AVR8/../AVR8/Endpoint_AVR8.h **** 
  39:../../tmk_core/protocol/lufa/LUFA-git/LUFA/Drivers/USB/Core/AVR8/../AVR8/Endpoint_AVR8.h **** /** \ingroup Group_EndpointRW
  40:../../tmk_core/protocol/lufa/LUFA-git/LUFA/Drivers/USB/Core/AVR8/../AVR8/Endpoint_AVR8.h ****  *  \defgroup Group_EndpointRW_AVR8 Endpoint Data Reading and Writing (AVR8)
  41:../../tmk_core/protocol/lufa/LUFA-git/LUFA/Drivers/USB/Core/AVR8/../AVR8/Endpoint_AVR8.h ****  *  \brief Endpoint data read/write definitions for the Atmel AVR8 architecture.
  42:../../tmk_core/protocol/lufa/LUFA-git/LUFA/Drivers/USB/Core/AVR8/../AVR8/Endpoint_AVR8.h ****  *
  43:../../tmk_core/protocol/lufa/LUFA-git/LUFA/Drivers/USB/Core/AVR8/../AVR8/Endpoint_AVR8.h ****  *  Functions, macros, variables, enums and types related to data reading and writing from and to e
  44:../../tmk_core/protocol/lufa/LUFA-git/LUFA/Drivers/USB/Core/AVR8/../AVR8/Endpoint_AVR8.h ****  */
  45:../../tmk_core/protocol/lufa/LUFA-git/LUFA/Drivers/USB/Core/AVR8/../AVR8/Endpoint_AVR8.h **** 
  46:../../tmk_core/protocol/lufa/LUFA-git/LUFA/Drivers/USB/Core/AVR8/../AVR8/Endpoint_AVR8.h **** /** \ingroup Group_EndpointPrimitiveRW
  47:../../tmk_core/protocol/lufa/LUFA-git/LUFA/Drivers/USB/Core/AVR8/../AVR8/Endpoint_AVR8.h ****  *  \defgroup Group_EndpointPrimitiveRW_AVR8 Read/Write of Primitive Data Types (AVR8)
  48:../../tmk_core/protocol/lufa/LUFA-git/LUFA/Drivers/USB/Core/AVR8/../AVR8/Endpoint_AVR8.h ****  *  \brief Endpoint primitive read/write definitions for the Atmel AVR8 architecture.
  49:../../tmk_core/protocol/lufa/LUFA-git/LUFA/Drivers/USB/Core/AVR8/../AVR8/Endpoint_AVR8.h ****  *
  50:../../tmk_core/protocol/lufa/LUFA-git/LUFA/Drivers/USB/Core/AVR8/../AVR8/Endpoint_AVR8.h ****  *  Functions, macros, variables, enums and types related to data reading and writing of primitive 
  51:../../tmk_core/protocol/lufa/LUFA-git/LUFA/Drivers/USB/Core/AVR8/../AVR8/Endpoint_AVR8.h ****  *  from and to endpoints.
  52:../../tmk_core/protocol/lufa/LUFA-git/LUFA/Drivers/USB/Core/AVR8/../AVR8/Endpoint_AVR8.h ****  */
  53:../../tmk_core/protocol/lufa/LUFA-git/LUFA/Drivers/USB/Core/AVR8/../AVR8/Endpoint_AVR8.h **** 
  54:../../tmk_core/protocol/lufa/LUFA-git/LUFA/Drivers/USB/Core/AVR8/../AVR8/Endpoint_AVR8.h **** /** \ingroup Group_EndpointPacketManagement
  55:../../tmk_core/protocol/lufa/LUFA-git/LUFA/Drivers/USB/Core/AVR8/../AVR8/Endpoint_AVR8.h ****  *  \defgroup Group_EndpointPacketManagement_AVR8 Endpoint Packet Management (AVR8)
  56:../../tmk_core/protocol/lufa/LUFA-git/LUFA/Drivers/USB/Core/AVR8/../AVR8/Endpoint_AVR8.h ****  *  \brief Endpoint packet management definitions for the Atmel AVR8 architecture.
  57:../../tmk_core/protocol/lufa/LUFA-git/LUFA/Drivers/USB/Core/AVR8/../AVR8/Endpoint_AVR8.h ****  *
  58:../../tmk_core/protocol/lufa/LUFA-git/LUFA/Drivers/USB/Core/AVR8/../AVR8/Endpoint_AVR8.h ****  *  Functions, macros, variables, enums and types related to packet management of endpoints.
  59:../../tmk_core/protocol/lufa/LUFA-git/LUFA/Drivers/USB/Core/AVR8/../AVR8/Endpoint_AVR8.h ****  */
  60:../../tmk_core/protocol/lufa/LUFA-git/LUFA/Drivers/USB/Core/AVR8/../AVR8/Endpoint_AVR8.h **** 
  61:../../tmk_core/protocol/lufa/LUFA-git/LUFA/Drivers/USB/Core/AVR8/../AVR8/Endpoint_AVR8.h **** /** \ingroup Group_EndpointManagement
  62:../../tmk_core/protocol/lufa/LUFA-git/LUFA/Drivers/USB/Core/AVR8/../AVR8/Endpoint_AVR8.h ****  *  \defgroup Group_EndpointManagement_AVR8 Endpoint Management (AVR8)
  63:../../tmk_core/protocol/lufa/LUFA-git/LUFA/Drivers/USB/Core/AVR8/../AVR8/Endpoint_AVR8.h ****  *  \brief Endpoint management definitions for the Atmel AVR8 architecture.
  64:../../tmk_core/protocol/lufa/LUFA-git/LUFA/Drivers/USB/Core/AVR8/../AVR8/Endpoint_AVR8.h ****  *
  65:../../tmk_core/protocol/lufa/LUFA-git/LUFA/Drivers/USB/Core/AVR8/../AVR8/Endpoint_AVR8.h ****  *  Functions, macros and enums related to endpoint management when in USB Device mode. This
  66:../../tmk_core/protocol/lufa/LUFA-git/LUFA/Drivers/USB/Core/AVR8/../AVR8/Endpoint_AVR8.h ****  *  module contains the endpoint management macros, as well as endpoint interrupt and data
  67:../../tmk_core/protocol/lufa/LUFA-git/LUFA/Drivers/USB/Core/AVR8/../AVR8/Endpoint_AVR8.h ****  *  send/receive functions for various data types.
  68:../../tmk_core/protocol/lufa/LUFA-git/LUFA/Drivers/USB/Core/AVR8/../AVR8/Endpoint_AVR8.h ****  *
  69:../../tmk_core/protocol/lufa/LUFA-git/LUFA/Drivers/USB/Core/AVR8/../AVR8/Endpoint_AVR8.h ****  *  @{
  70:../../tmk_core/protocol/lufa/LUFA-git/LUFA/Drivers/USB/Core/AVR8/../AVR8/Endpoint_AVR8.h ****  */
  71:../../tmk_core/protocol/lufa/LUFA-git/LUFA/Drivers/USB/Core/AVR8/../AVR8/Endpoint_AVR8.h **** 
  72:../../tmk_core/protocol/lufa/LUFA-git/LUFA/Drivers/USB/Core/AVR8/../AVR8/Endpoint_AVR8.h **** #ifndef __ENDPOINT_AVR8_H__
  73:../../tmk_core/protocol/lufa/LUFA-git/LUFA/Drivers/USB/Core/AVR8/../AVR8/Endpoint_AVR8.h **** #define __ENDPOINT_AVR8_H__
  74:../../tmk_core/protocol/lufa/LUFA-git/LUFA/Drivers/USB/Core/AVR8/../AVR8/Endpoint_AVR8.h **** 
  75:../../tmk_core/protocol/lufa/LUFA-git/LUFA/Drivers/USB/Core/AVR8/../AVR8/Endpoint_AVR8.h **** 	/* Includes: */
  76:../../tmk_core/protocol/lufa/LUFA-git/LUFA/Drivers/USB/Core/AVR8/../AVR8/Endpoint_AVR8.h **** 		#include "../../../../Common/Common.h"
  77:../../tmk_core/protocol/lufa/LUFA-git/LUFA/Drivers/USB/Core/AVR8/../AVR8/Endpoint_AVR8.h **** 		#include "../USBTask.h"
  78:../../tmk_core/protocol/lufa/LUFA-git/LUFA/Drivers/USB/Core/AVR8/../AVR8/Endpoint_AVR8.h **** 		#include "../USBInterrupt.h"
  79:../../tmk_core/protocol/lufa/LUFA-git/LUFA/Drivers/USB/Core/AVR8/../AVR8/Endpoint_AVR8.h **** 
  80:../../tmk_core/protocol/lufa/LUFA-git/LUFA/Drivers/USB/Core/AVR8/../AVR8/Endpoint_AVR8.h **** 	/* Enable C linkage for C++ Compilers: */
  81:../../tmk_core/protocol/lufa/LUFA-git/LUFA/Drivers/USB/Core/AVR8/../AVR8/Endpoint_AVR8.h **** 		#if defined(__cplusplus)
  82:../../tmk_core/protocol/lufa/LUFA-git/LUFA/Drivers/USB/Core/AVR8/../AVR8/Endpoint_AVR8.h **** 			extern "C" {
  83:../../tmk_core/protocol/lufa/LUFA-git/LUFA/Drivers/USB/Core/AVR8/../AVR8/Endpoint_AVR8.h **** 		#endif
  84:../../tmk_core/protocol/lufa/LUFA-git/LUFA/Drivers/USB/Core/AVR8/../AVR8/Endpoint_AVR8.h **** 
  85:../../tmk_core/protocol/lufa/LUFA-git/LUFA/Drivers/USB/Core/AVR8/../AVR8/Endpoint_AVR8.h **** 	/* Preprocessor Checks: */
  86:../../tmk_core/protocol/lufa/LUFA-git/LUFA/Drivers/USB/Core/AVR8/../AVR8/Endpoint_AVR8.h **** 		#if !defined(__INCLUDE_FROM_USB_DRIVER)
  87:../../tmk_core/protocol/lufa/LUFA-git/LUFA/Drivers/USB/Core/AVR8/../AVR8/Endpoint_AVR8.h **** 			#error Do not include this file directly. Include LUFA/Drivers/USB/USB.h instead.
  88:../../tmk_core/protocol/lufa/LUFA-git/LUFA/Drivers/USB/Core/AVR8/../AVR8/Endpoint_AVR8.h **** 		#endif
  89:../../tmk_core/protocol/lufa/LUFA-git/LUFA/Drivers/USB/Core/AVR8/../AVR8/Endpoint_AVR8.h **** 
  90:../../tmk_core/protocol/lufa/LUFA-git/LUFA/Drivers/USB/Core/AVR8/../AVR8/Endpoint_AVR8.h **** 	/* Private Interface - For use in library only: */
  91:../../tmk_core/protocol/lufa/LUFA-git/LUFA/Drivers/USB/Core/AVR8/../AVR8/Endpoint_AVR8.h **** 	#if !defined(__DOXYGEN__)
  92:../../tmk_core/protocol/lufa/LUFA-git/LUFA/Drivers/USB/Core/AVR8/../AVR8/Endpoint_AVR8.h **** 		/* Inline Functions: */
  93:../../tmk_core/protocol/lufa/LUFA-git/LUFA/Drivers/USB/Core/AVR8/../AVR8/Endpoint_AVR8.h **** 			static inline uint8_t Endpoint_BytesToEPSizeMask(const uint16_t Bytes) ATTR_WARN_UNUSED_RESULT A
  94:../../tmk_core/protocol/lufa/LUFA-git/LUFA/Drivers/USB/Core/AVR8/../AVR8/Endpoint_AVR8.h **** 			                                                                       ATTR_ALWAYS_INLINE;
  95:../../tmk_core/protocol/lufa/LUFA-git/LUFA/Drivers/USB/Core/AVR8/../AVR8/Endpoint_AVR8.h **** 			static inline uint8_t Endpoint_BytesToEPSizeMask(const uint16_t Bytes)
  96:../../tmk_core/protocol/lufa/LUFA-git/LUFA/Drivers/USB/Core/AVR8/../AVR8/Endpoint_AVR8.h **** 			{
  97:../../tmk_core/protocol/lufa/LUFA-git/LUFA/Drivers/USB/Core/AVR8/../AVR8/Endpoint_AVR8.h **** 				uint8_t  MaskVal    = 0;
  98:../../tmk_core/protocol/lufa/LUFA-git/LUFA/Drivers/USB/Core/AVR8/../AVR8/Endpoint_AVR8.h **** 				uint16_t CheckBytes = 8;
  99:../../tmk_core/protocol/lufa/LUFA-git/LUFA/Drivers/USB/Core/AVR8/../AVR8/Endpoint_AVR8.h **** 
 100:../../tmk_core/protocol/lufa/LUFA-git/LUFA/Drivers/USB/Core/AVR8/../AVR8/Endpoint_AVR8.h **** 				while (CheckBytes < Bytes)
 101:../../tmk_core/protocol/lufa/LUFA-git/LUFA/Drivers/USB/Core/AVR8/../AVR8/Endpoint_AVR8.h **** 				{
 102:../../tmk_core/protocol/lufa/LUFA-git/LUFA/Drivers/USB/Core/AVR8/../AVR8/Endpoint_AVR8.h **** 					MaskVal++;
 103:../../tmk_core/protocol/lufa/LUFA-git/LUFA/Drivers/USB/Core/AVR8/../AVR8/Endpoint_AVR8.h **** 					CheckBytes <<= 1;
 104:../../tmk_core/protocol/lufa/LUFA-git/LUFA/Drivers/USB/Core/AVR8/../AVR8/Endpoint_AVR8.h **** 				}
 105:../../tmk_core/protocol/lufa/LUFA-git/LUFA/Drivers/USB/Core/AVR8/../AVR8/Endpoint_AVR8.h **** 
 106:../../tmk_core/protocol/lufa/LUFA-git/LUFA/Drivers/USB/Core/AVR8/../AVR8/Endpoint_AVR8.h **** 				return (MaskVal << EPSIZE0);
 107:../../tmk_core/protocol/lufa/LUFA-git/LUFA/Drivers/USB/Core/AVR8/../AVR8/Endpoint_AVR8.h **** 			}
 108:../../tmk_core/protocol/lufa/LUFA-git/LUFA/Drivers/USB/Core/AVR8/../AVR8/Endpoint_AVR8.h **** 
 109:../../tmk_core/protocol/lufa/LUFA-git/LUFA/Drivers/USB/Core/AVR8/../AVR8/Endpoint_AVR8.h **** 		/* Function Prototypes: */
 110:../../tmk_core/protocol/lufa/LUFA-git/LUFA/Drivers/USB/Core/AVR8/../AVR8/Endpoint_AVR8.h **** 			void Endpoint_ClearEndpoints(void);
 111:../../tmk_core/protocol/lufa/LUFA-git/LUFA/Drivers/USB/Core/AVR8/../AVR8/Endpoint_AVR8.h **** 			bool Endpoint_ConfigureEndpoint_Prv(const uint8_t Number,
 112:../../tmk_core/protocol/lufa/LUFA-git/LUFA/Drivers/USB/Core/AVR8/../AVR8/Endpoint_AVR8.h **** 			                                    const uint8_t UECFG0XData,
 113:../../tmk_core/protocol/lufa/LUFA-git/LUFA/Drivers/USB/Core/AVR8/../AVR8/Endpoint_AVR8.h **** 			                                    const uint8_t UECFG1XData);
 114:../../tmk_core/protocol/lufa/LUFA-git/LUFA/Drivers/USB/Core/AVR8/../AVR8/Endpoint_AVR8.h **** 
 115:../../tmk_core/protocol/lufa/LUFA-git/LUFA/Drivers/USB/Core/AVR8/../AVR8/Endpoint_AVR8.h **** 	#endif
 116:../../tmk_core/protocol/lufa/LUFA-git/LUFA/Drivers/USB/Core/AVR8/../AVR8/Endpoint_AVR8.h **** 
 117:../../tmk_core/protocol/lufa/LUFA-git/LUFA/Drivers/USB/Core/AVR8/../AVR8/Endpoint_AVR8.h **** 	/* Public Interface - May be used in end-application: */
 118:../../tmk_core/protocol/lufa/LUFA-git/LUFA/Drivers/USB/Core/AVR8/../AVR8/Endpoint_AVR8.h **** 		/* Macros: */
 119:../../tmk_core/protocol/lufa/LUFA-git/LUFA/Drivers/USB/Core/AVR8/../AVR8/Endpoint_AVR8.h **** 			#if (!defined(FIXED_CONTROL_ENDPOINT_SIZE) || defined(__DOXYGEN__))
 120:../../tmk_core/protocol/lufa/LUFA-git/LUFA/Drivers/USB/Core/AVR8/../AVR8/Endpoint_AVR8.h **** 				/** Default size of the default control endpoint's bank, until altered by the control endpoint 
 121:../../tmk_core/protocol/lufa/LUFA-git/LUFA/Drivers/USB/Core/AVR8/../AVR8/Endpoint_AVR8.h **** 				 *  value in the device descriptor. Not available if the \c FIXED_CONTROL_ENDPOINT_SIZE token i
 122:../../tmk_core/protocol/lufa/LUFA-git/LUFA/Drivers/USB/Core/AVR8/../AVR8/Endpoint_AVR8.h **** 				 */
 123:../../tmk_core/protocol/lufa/LUFA-git/LUFA/Drivers/USB/Core/AVR8/../AVR8/Endpoint_AVR8.h **** 				#define ENDPOINT_CONTROLEP_DEFAULT_SIZE     8
 124:../../tmk_core/protocol/lufa/LUFA-git/LUFA/Drivers/USB/Core/AVR8/../AVR8/Endpoint_AVR8.h **** 			#endif
 125:../../tmk_core/protocol/lufa/LUFA-git/LUFA/Drivers/USB/Core/AVR8/../AVR8/Endpoint_AVR8.h **** 
 126:../../tmk_core/protocol/lufa/LUFA-git/LUFA/Drivers/USB/Core/AVR8/../AVR8/Endpoint_AVR8.h **** 			#if !defined(CONTROL_ONLY_DEVICE) || defined(__DOXYGEN__)
 127:../../tmk_core/protocol/lufa/LUFA-git/LUFA/Drivers/USB/Core/AVR8/../AVR8/Endpoint_AVR8.h **** 				#if defined(USB_SERIES_4_AVR) || defined(USB_SERIES_6_AVR) || defined(USB_SERIES_7_AVR) || defi
 128:../../tmk_core/protocol/lufa/LUFA-git/LUFA/Drivers/USB/Core/AVR8/../AVR8/Endpoint_AVR8.h **** 					/** Total number of endpoints (including the default control endpoint at address 0) which may
 129:../../tmk_core/protocol/lufa/LUFA-git/LUFA/Drivers/USB/Core/AVR8/../AVR8/Endpoint_AVR8.h **** 					 *  be used in the device. Different USB AVR models support different amounts of endpoints,
 130:../../tmk_core/protocol/lufa/LUFA-git/LUFA/Drivers/USB/Core/AVR8/../AVR8/Endpoint_AVR8.h **** 					 *  this value reflects the maximum number of endpoints for the currently selected AVR model.
 131:../../tmk_core/protocol/lufa/LUFA-git/LUFA/Drivers/USB/Core/AVR8/../AVR8/Endpoint_AVR8.h **** 					 */
 132:../../tmk_core/protocol/lufa/LUFA-git/LUFA/Drivers/USB/Core/AVR8/../AVR8/Endpoint_AVR8.h **** 					#define ENDPOINT_TOTAL_ENDPOINTS        7
 133:../../tmk_core/protocol/lufa/LUFA-git/LUFA/Drivers/USB/Core/AVR8/../AVR8/Endpoint_AVR8.h **** 				#else
 134:../../tmk_core/protocol/lufa/LUFA-git/LUFA/Drivers/USB/Core/AVR8/../AVR8/Endpoint_AVR8.h **** 					#define ENDPOINT_TOTAL_ENDPOINTS        5
 135:../../tmk_core/protocol/lufa/LUFA-git/LUFA/Drivers/USB/Core/AVR8/../AVR8/Endpoint_AVR8.h **** 				#endif
 136:../../tmk_core/protocol/lufa/LUFA-git/LUFA/Drivers/USB/Core/AVR8/../AVR8/Endpoint_AVR8.h **** 			#else
 137:../../tmk_core/protocol/lufa/LUFA-git/LUFA/Drivers/USB/Core/AVR8/../AVR8/Endpoint_AVR8.h **** 				#define ENDPOINT_TOTAL_ENDPOINTS            1
 138:../../tmk_core/protocol/lufa/LUFA-git/LUFA/Drivers/USB/Core/AVR8/../AVR8/Endpoint_AVR8.h **** 			#endif
 139:../../tmk_core/protocol/lufa/LUFA-git/LUFA/Drivers/USB/Core/AVR8/../AVR8/Endpoint_AVR8.h **** 
 140:../../tmk_core/protocol/lufa/LUFA-git/LUFA/Drivers/USB/Core/AVR8/../AVR8/Endpoint_AVR8.h **** 		/* Enums: */
 141:../../tmk_core/protocol/lufa/LUFA-git/LUFA/Drivers/USB/Core/AVR8/../AVR8/Endpoint_AVR8.h **** 			/** Enum for the possible error return codes of the \ref Endpoint_WaitUntilReady() function.
 142:../../tmk_core/protocol/lufa/LUFA-git/LUFA/Drivers/USB/Core/AVR8/../AVR8/Endpoint_AVR8.h **** 			 *
 143:../../tmk_core/protocol/lufa/LUFA-git/LUFA/Drivers/USB/Core/AVR8/../AVR8/Endpoint_AVR8.h **** 			 *  \ingroup Group_EndpointRW_AVR8
 144:../../tmk_core/protocol/lufa/LUFA-git/LUFA/Drivers/USB/Core/AVR8/../AVR8/Endpoint_AVR8.h **** 			 */
 145:../../tmk_core/protocol/lufa/LUFA-git/LUFA/Drivers/USB/Core/AVR8/../AVR8/Endpoint_AVR8.h **** 			enum Endpoint_WaitUntilReady_ErrorCodes_t
 146:../../tmk_core/protocol/lufa/LUFA-git/LUFA/Drivers/USB/Core/AVR8/../AVR8/Endpoint_AVR8.h **** 			{
 147:../../tmk_core/protocol/lufa/LUFA-git/LUFA/Drivers/USB/Core/AVR8/../AVR8/Endpoint_AVR8.h **** 				ENDPOINT_READYWAIT_NoError                 = 0, /**< Endpoint is ready for next packet, no erro
 148:../../tmk_core/protocol/lufa/LUFA-git/LUFA/Drivers/USB/Core/AVR8/../AVR8/Endpoint_AVR8.h **** 				ENDPOINT_READYWAIT_EndpointStalled         = 1, /**< The endpoint was stalled during the stream
 149:../../tmk_core/protocol/lufa/LUFA-git/LUFA/Drivers/USB/Core/AVR8/../AVR8/Endpoint_AVR8.h **** 				                                                 *   transfer by the host or device.
 150:../../tmk_core/protocol/lufa/LUFA-git/LUFA/Drivers/USB/Core/AVR8/../AVR8/Endpoint_AVR8.h **** 				                                                 */
 151:../../tmk_core/protocol/lufa/LUFA-git/LUFA/Drivers/USB/Core/AVR8/../AVR8/Endpoint_AVR8.h **** 				ENDPOINT_READYWAIT_DeviceDisconnected      = 2,	/**< Device was disconnected from the host whil
 152:../../tmk_core/protocol/lufa/LUFA-git/LUFA/Drivers/USB/Core/AVR8/../AVR8/Endpoint_AVR8.h **** 				                                                 *   waiting for the endpoint to become ready.
 153:../../tmk_core/protocol/lufa/LUFA-git/LUFA/Drivers/USB/Core/AVR8/../AVR8/Endpoint_AVR8.h **** 				                                                 */
 154:../../tmk_core/protocol/lufa/LUFA-git/LUFA/Drivers/USB/Core/AVR8/../AVR8/Endpoint_AVR8.h **** 				ENDPOINT_READYWAIT_BusSuspended            = 3, /**< The USB bus has been suspended by the host
 155:../../tmk_core/protocol/lufa/LUFA-git/LUFA/Drivers/USB/Core/AVR8/../AVR8/Endpoint_AVR8.h **** 				                                                 *   no USB endpoint traffic can occur until th
 156:../../tmk_core/protocol/lufa/LUFA-git/LUFA/Drivers/USB/Core/AVR8/../AVR8/Endpoint_AVR8.h **** 				                                                 *   has resumed.
 157:../../tmk_core/protocol/lufa/LUFA-git/LUFA/Drivers/USB/Core/AVR8/../AVR8/Endpoint_AVR8.h **** 				                                                 */
 158:../../tmk_core/protocol/lufa/LUFA-git/LUFA/Drivers/USB/Core/AVR8/../AVR8/Endpoint_AVR8.h **** 				ENDPOINT_READYWAIT_Timeout                 = 4, /**< The host failed to accept or send the next
 159:../../tmk_core/protocol/lufa/LUFA-git/LUFA/Drivers/USB/Core/AVR8/../AVR8/Endpoint_AVR8.h **** 				                                                 *   within the software timeout period set by 
 160:../../tmk_core/protocol/lufa/LUFA-git/LUFA/Drivers/USB/Core/AVR8/../AVR8/Endpoint_AVR8.h **** 				                                                 *   \ref USB_STREAM_TIMEOUT_MS macro.
 161:../../tmk_core/protocol/lufa/LUFA-git/LUFA/Drivers/USB/Core/AVR8/../AVR8/Endpoint_AVR8.h **** 				                                                 */
 162:../../tmk_core/protocol/lufa/LUFA-git/LUFA/Drivers/USB/Core/AVR8/../AVR8/Endpoint_AVR8.h **** 			};
 163:../../tmk_core/protocol/lufa/LUFA-git/LUFA/Drivers/USB/Core/AVR8/../AVR8/Endpoint_AVR8.h **** 
 164:../../tmk_core/protocol/lufa/LUFA-git/LUFA/Drivers/USB/Core/AVR8/../AVR8/Endpoint_AVR8.h **** 		/* Inline Functions: */
 165:../../tmk_core/protocol/lufa/LUFA-git/LUFA/Drivers/USB/Core/AVR8/../AVR8/Endpoint_AVR8.h **** 			/** Configures the specified endpoint address with the given endpoint type, bank size and number
 166:../../tmk_core/protocol/lufa/LUFA-git/LUFA/Drivers/USB/Core/AVR8/../AVR8/Endpoint_AVR8.h **** 			 *  banks. Once configured, the endpoint may be read from or written to, depending on its direct
 167:../../tmk_core/protocol/lufa/LUFA-git/LUFA/Drivers/USB/Core/AVR8/../AVR8/Endpoint_AVR8.h **** 			 *
 168:../../tmk_core/protocol/lufa/LUFA-git/LUFA/Drivers/USB/Core/AVR8/../AVR8/Endpoint_AVR8.h **** 			 *  \param[in] Address    Endpoint address to configure.
 169:../../tmk_core/protocol/lufa/LUFA-git/LUFA/Drivers/USB/Core/AVR8/../AVR8/Endpoint_AVR8.h **** 			 *
 170:../../tmk_core/protocol/lufa/LUFA-git/LUFA/Drivers/USB/Core/AVR8/../AVR8/Endpoint_AVR8.h **** 			 *  \param[in] Type       Type of endpoint to configure, a \c EP_TYPE_* mask. Not all endpoint t
 171:../../tmk_core/protocol/lufa/LUFA-git/LUFA/Drivers/USB/Core/AVR8/../AVR8/Endpoint_AVR8.h **** 			 *                        are available on Low Speed USB devices - refer to the USB 2.0 specific
 172:../../tmk_core/protocol/lufa/LUFA-git/LUFA/Drivers/USB/Core/AVR8/../AVR8/Endpoint_AVR8.h **** 			 *
 173:../../tmk_core/protocol/lufa/LUFA-git/LUFA/Drivers/USB/Core/AVR8/../AVR8/Endpoint_AVR8.h **** 			 *  \param[in] Size       Size of the endpoint's bank, where packets are stored before they are 
 174:../../tmk_core/protocol/lufa/LUFA-git/LUFA/Drivers/USB/Core/AVR8/../AVR8/Endpoint_AVR8.h **** 			 *                        to the USB host, or after they have been received from the USB host (d
 175:../../tmk_core/protocol/lufa/LUFA-git/LUFA/Drivers/USB/Core/AVR8/../AVR8/Endpoint_AVR8.h **** 			 *                        the endpoint's data direction). The bank size must indicate the maximu
 176:../../tmk_core/protocol/lufa/LUFA-git/LUFA/Drivers/USB/Core/AVR8/../AVR8/Endpoint_AVR8.h **** 			 *                        that the endpoint can handle.
 177:../../tmk_core/protocol/lufa/LUFA-git/LUFA/Drivers/USB/Core/AVR8/../AVR8/Endpoint_AVR8.h **** 			 *
 178:../../tmk_core/protocol/lufa/LUFA-git/LUFA/Drivers/USB/Core/AVR8/../AVR8/Endpoint_AVR8.h **** 			 *  \param[in] Banks      Number of banks to use for the endpoint being configured.
 179:../../tmk_core/protocol/lufa/LUFA-git/LUFA/Drivers/USB/Core/AVR8/../AVR8/Endpoint_AVR8.h **** 			 *
 180:../../tmk_core/protocol/lufa/LUFA-git/LUFA/Drivers/USB/Core/AVR8/../AVR8/Endpoint_AVR8.h **** 			 *  \attention When the \c ORDERED_EP_CONFIG compile time option is used, Endpoints <b>must</b> 
 181:../../tmk_core/protocol/lufa/LUFA-git/LUFA/Drivers/USB/Core/AVR8/../AVR8/Endpoint_AVR8.h **** 			 *             ascending order, or bank corruption will occur.
 182:../../tmk_core/protocol/lufa/LUFA-git/LUFA/Drivers/USB/Core/AVR8/../AVR8/Endpoint_AVR8.h **** 			 *
 183:../../tmk_core/protocol/lufa/LUFA-git/LUFA/Drivers/USB/Core/AVR8/../AVR8/Endpoint_AVR8.h **** 			 *  \note Different endpoints may have different maximum packet sizes based on the endpoint's in
 184:../../tmk_core/protocol/lufa/LUFA-git/LUFA/Drivers/USB/Core/AVR8/../AVR8/Endpoint_AVR8.h **** 			 *        refer to the chosen microcontroller model's datasheet to determine the maximum bank si
 185:../../tmk_core/protocol/lufa/LUFA-git/LUFA/Drivers/USB/Core/AVR8/../AVR8/Endpoint_AVR8.h **** 			 *        \n\n
 186:../../tmk_core/protocol/lufa/LUFA-git/LUFA/Drivers/USB/Core/AVR8/../AVR8/Endpoint_AVR8.h **** 			 *
 187:../../tmk_core/protocol/lufa/LUFA-git/LUFA/Drivers/USB/Core/AVR8/../AVR8/Endpoint_AVR8.h **** 			 *  \note The default control endpoint should not be manually configured by the user application
 188:../../tmk_core/protocol/lufa/LUFA-git/LUFA/Drivers/USB/Core/AVR8/../AVR8/Endpoint_AVR8.h **** 			 *        it is automatically configured by the library internally.
 189:../../tmk_core/protocol/lufa/LUFA-git/LUFA/Drivers/USB/Core/AVR8/../AVR8/Endpoint_AVR8.h **** 			 *        \n\n
 190:../../tmk_core/protocol/lufa/LUFA-git/LUFA/Drivers/USB/Core/AVR8/../AVR8/Endpoint_AVR8.h **** 			 *
 191:../../tmk_core/protocol/lufa/LUFA-git/LUFA/Drivers/USB/Core/AVR8/../AVR8/Endpoint_AVR8.h **** 			 *  \note This routine will automatically select the specified endpoint upon success. Upon failu
 192:../../tmk_core/protocol/lufa/LUFA-git/LUFA/Drivers/USB/Core/AVR8/../AVR8/Endpoint_AVR8.h **** 			 *        which failed to reconfigure correctly will be selected.
 193:../../tmk_core/protocol/lufa/LUFA-git/LUFA/Drivers/USB/Core/AVR8/../AVR8/Endpoint_AVR8.h **** 			 *
 194:../../tmk_core/protocol/lufa/LUFA-git/LUFA/Drivers/USB/Core/AVR8/../AVR8/Endpoint_AVR8.h **** 			 *  \return Boolean \c true if the configuration succeeded, \c false otherwise.
 195:../../tmk_core/protocol/lufa/LUFA-git/LUFA/Drivers/USB/Core/AVR8/../AVR8/Endpoint_AVR8.h **** 			 */
 196:../../tmk_core/protocol/lufa/LUFA-git/LUFA/Drivers/USB/Core/AVR8/../AVR8/Endpoint_AVR8.h **** 			static inline bool Endpoint_ConfigureEndpoint(const uint8_t Address,
 197:../../tmk_core/protocol/lufa/LUFA-git/LUFA/Drivers/USB/Core/AVR8/../AVR8/Endpoint_AVR8.h **** 			                                              const uint8_t Type,
 198:../../tmk_core/protocol/lufa/LUFA-git/LUFA/Drivers/USB/Core/AVR8/../AVR8/Endpoint_AVR8.h **** 			                                              const uint16_t Size,
 199:../../tmk_core/protocol/lufa/LUFA-git/LUFA/Drivers/USB/Core/AVR8/../AVR8/Endpoint_AVR8.h **** 			                                              const uint8_t Banks) ATTR_ALWAYS_INLINE;
 200:../../tmk_core/protocol/lufa/LUFA-git/LUFA/Drivers/USB/Core/AVR8/../AVR8/Endpoint_AVR8.h **** 			static inline bool Endpoint_ConfigureEndpoint(const uint8_t Address,
 201:../../tmk_core/protocol/lufa/LUFA-git/LUFA/Drivers/USB/Core/AVR8/../AVR8/Endpoint_AVR8.h **** 			                                              const uint8_t Type,
 202:../../tmk_core/protocol/lufa/LUFA-git/LUFA/Drivers/USB/Core/AVR8/../AVR8/Endpoint_AVR8.h **** 			                                              const uint16_t Size,
 203:../../tmk_core/protocol/lufa/LUFA-git/LUFA/Drivers/USB/Core/AVR8/../AVR8/Endpoint_AVR8.h **** 			                                              const uint8_t Banks)
 204:../../tmk_core/protocol/lufa/LUFA-git/LUFA/Drivers/USB/Core/AVR8/../AVR8/Endpoint_AVR8.h **** 			{
 205:../../tmk_core/protocol/lufa/LUFA-git/LUFA/Drivers/USB/Core/AVR8/../AVR8/Endpoint_AVR8.h **** 				uint8_t Number = (Address & ENDPOINT_EPNUM_MASK);
 206:../../tmk_core/protocol/lufa/LUFA-git/LUFA/Drivers/USB/Core/AVR8/../AVR8/Endpoint_AVR8.h **** 
 207:../../tmk_core/protocol/lufa/LUFA-git/LUFA/Drivers/USB/Core/AVR8/../AVR8/Endpoint_AVR8.h **** 				if (Number >= ENDPOINT_TOTAL_ENDPOINTS)
 208:../../tmk_core/protocol/lufa/LUFA-git/LUFA/Drivers/USB/Core/AVR8/../AVR8/Endpoint_AVR8.h **** 				  return false;
 209:../../tmk_core/protocol/lufa/LUFA-git/LUFA/Drivers/USB/Core/AVR8/../AVR8/Endpoint_AVR8.h **** 
 210:../../tmk_core/protocol/lufa/LUFA-git/LUFA/Drivers/USB/Core/AVR8/../AVR8/Endpoint_AVR8.h **** 				return Endpoint_ConfigureEndpoint_Prv(Number,
 211:../../tmk_core/protocol/lufa/LUFA-git/LUFA/Drivers/USB/Core/AVR8/../AVR8/Endpoint_AVR8.h **** 				                                      ((Type << EPTYPE0) | ((Address & ENDPOINT_DIR_IN) ? (1 <<
 212:../../tmk_core/protocol/lufa/LUFA-git/LUFA/Drivers/USB/Core/AVR8/../AVR8/Endpoint_AVR8.h **** 				                                      ((1 << ALLOC) | ((Banks > 1) ? (1 << EPBK0) : 0) | Endpoi
 213:../../tmk_core/protocol/lufa/LUFA-git/LUFA/Drivers/USB/Core/AVR8/../AVR8/Endpoint_AVR8.h **** 			}
 214:../../tmk_core/protocol/lufa/LUFA-git/LUFA/Drivers/USB/Core/AVR8/../AVR8/Endpoint_AVR8.h **** 
 215:../../tmk_core/protocol/lufa/LUFA-git/LUFA/Drivers/USB/Core/AVR8/../AVR8/Endpoint_AVR8.h **** 			/** Indicates the number of bytes currently stored in the current endpoint's selected bank.
 216:../../tmk_core/protocol/lufa/LUFA-git/LUFA/Drivers/USB/Core/AVR8/../AVR8/Endpoint_AVR8.h **** 			 *
 217:../../tmk_core/protocol/lufa/LUFA-git/LUFA/Drivers/USB/Core/AVR8/../AVR8/Endpoint_AVR8.h **** 			 *  \ingroup Group_EndpointRW_AVR8
 218:../../tmk_core/protocol/lufa/LUFA-git/LUFA/Drivers/USB/Core/AVR8/../AVR8/Endpoint_AVR8.h **** 			 *
 219:../../tmk_core/protocol/lufa/LUFA-git/LUFA/Drivers/USB/Core/AVR8/../AVR8/Endpoint_AVR8.h **** 			 *  \return Total number of bytes in the currently selected Endpoint's FIFO buffer.
 220:../../tmk_core/protocol/lufa/LUFA-git/LUFA/Drivers/USB/Core/AVR8/../AVR8/Endpoint_AVR8.h **** 			 */
 221:../../tmk_core/protocol/lufa/LUFA-git/LUFA/Drivers/USB/Core/AVR8/../AVR8/Endpoint_AVR8.h **** 			static inline uint16_t Endpoint_BytesInEndpoint(void) ATTR_WARN_UNUSED_RESULT ATTR_ALWAYS_INLINE
 222:../../tmk_core/protocol/lufa/LUFA-git/LUFA/Drivers/USB/Core/AVR8/../AVR8/Endpoint_AVR8.h **** 			static inline uint16_t Endpoint_BytesInEndpoint(void)
 223:../../tmk_core/protocol/lufa/LUFA-git/LUFA/Drivers/USB/Core/AVR8/../AVR8/Endpoint_AVR8.h **** 			{
 224:../../tmk_core/protocol/lufa/LUFA-git/LUFA/Drivers/USB/Core/AVR8/../AVR8/Endpoint_AVR8.h **** 				#if (defined(USB_SERIES_6_AVR) || defined(USB_SERIES_7_AVR))
 225:../../tmk_core/protocol/lufa/LUFA-git/LUFA/Drivers/USB/Core/AVR8/../AVR8/Endpoint_AVR8.h **** 					return UEBCX;
 226:../../tmk_core/protocol/lufa/LUFA-git/LUFA/Drivers/USB/Core/AVR8/../AVR8/Endpoint_AVR8.h **** 				#elif defined(USB_SERIES_4_AVR)
 227:../../tmk_core/protocol/lufa/LUFA-git/LUFA/Drivers/USB/Core/AVR8/../AVR8/Endpoint_AVR8.h **** 					return (((uint16_t)UEBCHX << 8) | UEBCLX);
 228:../../tmk_core/protocol/lufa/LUFA-git/LUFA/Drivers/USB/Core/AVR8/../AVR8/Endpoint_AVR8.h **** 				#elif defined(USB_SERIES_2_AVR)
 229:../../tmk_core/protocol/lufa/LUFA-git/LUFA/Drivers/USB/Core/AVR8/../AVR8/Endpoint_AVR8.h **** 					return UEBCLX;
 230:../../tmk_core/protocol/lufa/LUFA-git/LUFA/Drivers/USB/Core/AVR8/../AVR8/Endpoint_AVR8.h **** 				#endif
 231:../../tmk_core/protocol/lufa/LUFA-git/LUFA/Drivers/USB/Core/AVR8/../AVR8/Endpoint_AVR8.h **** 			}
 232:../../tmk_core/protocol/lufa/LUFA-git/LUFA/Drivers/USB/Core/AVR8/../AVR8/Endpoint_AVR8.h **** 
 233:../../tmk_core/protocol/lufa/LUFA-git/LUFA/Drivers/USB/Core/AVR8/../AVR8/Endpoint_AVR8.h **** 			/** Determines the currently selected endpoint's direction.
 234:../../tmk_core/protocol/lufa/LUFA-git/LUFA/Drivers/USB/Core/AVR8/../AVR8/Endpoint_AVR8.h **** 			 *
 235:../../tmk_core/protocol/lufa/LUFA-git/LUFA/Drivers/USB/Core/AVR8/../AVR8/Endpoint_AVR8.h **** 			 *  \return The currently selected endpoint's direction, as a \c ENDPOINT_DIR_* mask.
 236:../../tmk_core/protocol/lufa/LUFA-git/LUFA/Drivers/USB/Core/AVR8/../AVR8/Endpoint_AVR8.h **** 			 */
 237:../../tmk_core/protocol/lufa/LUFA-git/LUFA/Drivers/USB/Core/AVR8/../AVR8/Endpoint_AVR8.h **** 			static inline uint8_t Endpoint_GetEndpointDirection(void) ATTR_WARN_UNUSED_RESULT ATTR_ALWAYS_IN
 238:../../tmk_core/protocol/lufa/LUFA-git/LUFA/Drivers/USB/Core/AVR8/../AVR8/Endpoint_AVR8.h **** 			static inline uint8_t Endpoint_GetEndpointDirection(void)
 239:../../tmk_core/protocol/lufa/LUFA-git/LUFA/Drivers/USB/Core/AVR8/../AVR8/Endpoint_AVR8.h **** 			{
 240:../../tmk_core/protocol/lufa/LUFA-git/LUFA/Drivers/USB/Core/AVR8/../AVR8/Endpoint_AVR8.h **** 				return (UECFG0X & (1 << EPDIR)) ? ENDPOINT_DIR_IN : ENDPOINT_DIR_OUT;
 241:../../tmk_core/protocol/lufa/LUFA-git/LUFA/Drivers/USB/Core/AVR8/../AVR8/Endpoint_AVR8.h **** 			}
 242:../../tmk_core/protocol/lufa/LUFA-git/LUFA/Drivers/USB/Core/AVR8/../AVR8/Endpoint_AVR8.h **** 
 243:../../tmk_core/protocol/lufa/LUFA-git/LUFA/Drivers/USB/Core/AVR8/../AVR8/Endpoint_AVR8.h **** 			/** Get the endpoint address of the currently selected endpoint. This is typically used to save
 244:../../tmk_core/protocol/lufa/LUFA-git/LUFA/Drivers/USB/Core/AVR8/../AVR8/Endpoint_AVR8.h **** 			 *  the currently selected endpoint so that it can be restored after another endpoint has been
 245:../../tmk_core/protocol/lufa/LUFA-git/LUFA/Drivers/USB/Core/AVR8/../AVR8/Endpoint_AVR8.h **** 			 *  manipulated.
 246:../../tmk_core/protocol/lufa/LUFA-git/LUFA/Drivers/USB/Core/AVR8/../AVR8/Endpoint_AVR8.h **** 			 *
 247:../../tmk_core/protocol/lufa/LUFA-git/LUFA/Drivers/USB/Core/AVR8/../AVR8/Endpoint_AVR8.h **** 			 *  \return Index of the currently selected endpoint.
 248:../../tmk_core/protocol/lufa/LUFA-git/LUFA/Drivers/USB/Core/AVR8/../AVR8/Endpoint_AVR8.h **** 			 */
 249:../../tmk_core/protocol/lufa/LUFA-git/LUFA/Drivers/USB/Core/AVR8/../AVR8/Endpoint_AVR8.h **** 			static inline uint8_t Endpoint_GetCurrentEndpoint(void) ATTR_WARN_UNUSED_RESULT ATTR_ALWAYS_INLI
 250:../../tmk_core/protocol/lufa/LUFA-git/LUFA/Drivers/USB/Core/AVR8/../AVR8/Endpoint_AVR8.h **** 			static inline uint8_t Endpoint_GetCurrentEndpoint(void)
 251:../../tmk_core/protocol/lufa/LUFA-git/LUFA/Drivers/USB/Core/AVR8/../AVR8/Endpoint_AVR8.h **** 			{
 252:../../tmk_core/protocol/lufa/LUFA-git/LUFA/Drivers/USB/Core/AVR8/../AVR8/Endpoint_AVR8.h **** 				#if !defined(CONTROL_ONLY_DEVICE)
 253:../../tmk_core/protocol/lufa/LUFA-git/LUFA/Drivers/USB/Core/AVR8/../AVR8/Endpoint_AVR8.h **** 					return ((UENUM & ENDPOINT_EPNUM_MASK) | Endpoint_GetEndpointDirection());
 254:../../tmk_core/protocol/lufa/LUFA-git/LUFA/Drivers/USB/Core/AVR8/../AVR8/Endpoint_AVR8.h **** 				#else
 255:../../tmk_core/protocol/lufa/LUFA-git/LUFA/Drivers/USB/Core/AVR8/../AVR8/Endpoint_AVR8.h **** 					return ENDPOINT_CONTROLEP;
 256:../../tmk_core/protocol/lufa/LUFA-git/LUFA/Drivers/USB/Core/AVR8/../AVR8/Endpoint_AVR8.h **** 				#endif
 257:../../tmk_core/protocol/lufa/LUFA-git/LUFA/Drivers/USB/Core/AVR8/../AVR8/Endpoint_AVR8.h **** 			}
 258:../../tmk_core/protocol/lufa/LUFA-git/LUFA/Drivers/USB/Core/AVR8/../AVR8/Endpoint_AVR8.h **** 
 259:../../tmk_core/protocol/lufa/LUFA-git/LUFA/Drivers/USB/Core/AVR8/../AVR8/Endpoint_AVR8.h **** 			/** Selects the given endpoint address.
 260:../../tmk_core/protocol/lufa/LUFA-git/LUFA/Drivers/USB/Core/AVR8/../AVR8/Endpoint_AVR8.h **** 			 *
 261:../../tmk_core/protocol/lufa/LUFA-git/LUFA/Drivers/USB/Core/AVR8/../AVR8/Endpoint_AVR8.h **** 			 *  Any endpoint operations which do not require the endpoint address to be indicated will opera
 262:../../tmk_core/protocol/lufa/LUFA-git/LUFA/Drivers/USB/Core/AVR8/../AVR8/Endpoint_AVR8.h **** 			 *  the currently selected endpoint.
 263:../../tmk_core/protocol/lufa/LUFA-git/LUFA/Drivers/USB/Core/AVR8/../AVR8/Endpoint_AVR8.h **** 			 *
 264:../../tmk_core/protocol/lufa/LUFA-git/LUFA/Drivers/USB/Core/AVR8/../AVR8/Endpoint_AVR8.h **** 			 *  \param[in] Address Endpoint address to select.
 265:../../tmk_core/protocol/lufa/LUFA-git/LUFA/Drivers/USB/Core/AVR8/../AVR8/Endpoint_AVR8.h **** 			 */
 266:../../tmk_core/protocol/lufa/LUFA-git/LUFA/Drivers/USB/Core/AVR8/../AVR8/Endpoint_AVR8.h **** 			static inline void Endpoint_SelectEndpoint(const uint8_t Address) ATTR_ALWAYS_INLINE;
 267:../../tmk_core/protocol/lufa/LUFA-git/LUFA/Drivers/USB/Core/AVR8/../AVR8/Endpoint_AVR8.h **** 			static inline void Endpoint_SelectEndpoint(const uint8_t Address)
 268:../../tmk_core/protocol/lufa/LUFA-git/LUFA/Drivers/USB/Core/AVR8/../AVR8/Endpoint_AVR8.h **** 			{
 269:../../tmk_core/protocol/lufa/LUFA-git/LUFA/Drivers/USB/Core/AVR8/../AVR8/Endpoint_AVR8.h **** 				#if !defined(CONTROL_ONLY_DEVICE)
 270:../../tmk_core/protocol/lufa/LUFA-git/LUFA/Drivers/USB/Core/AVR8/../AVR8/Endpoint_AVR8.h **** 					UENUM = (Address & ENDPOINT_EPNUM_MASK);
  68               		.loc 2 270 0
  69 001c 2093 E900 		sts 233,r18
  70               	.LVL3:
  71 0020 8FEF      		ldi r24,lo8(-1)
  72               	.LVL4:
  73 0022 00C0      		rjmp .L4
  74               	.L6:
  75               	.LVL5:
  76               	.LBE173:
  77               	.LBE172:
  78               	.LBB174:
  79               	.LBB175:
  80               		.file 3 "d:\\applications\\keyboard\\avr-gcc-4.7.2-mingw32\\bin\\../lib/gcc/avr/4.7.2/../../../../
   1:d:\applications\keyboard\avr-gcc-4.7.2-mingw32\bin\../lib/gcc/avr/4.7.2/../../../../avr/include/util\delay.h **** /* Copyright (c) 2002, Marek Michalkiewicz
   2:d:\applications\keyboard\avr-gcc-4.7.2-mingw32\bin\../lib/gcc/avr/4.7.2/../../../../avr/include/util\delay.h ****    Copyright (c) 2004,2005,2007 Joerg Wunsch
   3:d:\applications\keyboard\avr-gcc-4.7.2-mingw32\bin\../lib/gcc/avr/4.7.2/../../../../avr/include/util\delay.h ****    Copyright (c) 2007  Florin-Viorel Petrov
   4:d:\applications\keyboard\avr-gcc-4.7.2-mingw32\bin\../lib/gcc/avr/4.7.2/../../../../avr/include/util\delay.h ****    All rights reserved.
   5:d:\applications\keyboard\avr-gcc-4.7.2-mingw32\bin\../lib/gcc/avr/4.7.2/../../../../avr/include/util\delay.h **** 
   6:d:\applications\keyboard\avr-gcc-4.7.2-mingw32\bin\../lib/gcc/avr/4.7.2/../../../../avr/include/util\delay.h ****    Redistribution and use in source and binary forms, with or without
   7:d:\applications\keyboard\avr-gcc-4.7.2-mingw32\bin\../lib/gcc/avr/4.7.2/../../../../avr/include/util\delay.h ****    modification, are permitted provided that the following conditions are met:
   8:d:\applications\keyboard\avr-gcc-4.7.2-mingw32\bin\../lib/gcc/avr/4.7.2/../../../../avr/include/util\delay.h **** 
   9:d:\applications\keyboard\avr-gcc-4.7.2-mingw32\bin\../lib/gcc/avr/4.7.2/../../../../avr/include/util\delay.h ****    * Redistributions of source code must retain the above copyright
  10:d:\applications\keyboard\avr-gcc-4.7.2-mingw32\bin\../lib/gcc/avr/4.7.2/../../../../avr/include/util\delay.h ****      notice, this list of conditions and the following disclaimer.
  11:d:\applications\keyboard\avr-gcc-4.7.2-mingw32\bin\../lib/gcc/avr/4.7.2/../../../../avr/include/util\delay.h **** 
  12:d:\applications\keyboard\avr-gcc-4.7.2-mingw32\bin\../lib/gcc/avr/4.7.2/../../../../avr/include/util\delay.h ****    * Redistributions in binary form must reproduce the above copyright
  13:d:\applications\keyboard\avr-gcc-4.7.2-mingw32\bin\../lib/gcc/avr/4.7.2/../../../../avr/include/util\delay.h ****      notice, this list of conditions and the following disclaimer in
  14:d:\applications\keyboard\avr-gcc-4.7.2-mingw32\bin\../lib/gcc/avr/4.7.2/../../../../avr/include/util\delay.h ****      the documentation and/or other materials provided with the
  15:d:\applications\keyboard\avr-gcc-4.7.2-mingw32\bin\../lib/gcc/avr/4.7.2/../../../../avr/include/util\delay.h ****      distribution.
  16:d:\applications\keyboard\avr-gcc-4.7.2-mingw32\bin\../lib/gcc/avr/4.7.2/../../../../avr/include/util\delay.h **** 
  17:d:\applications\keyboard\avr-gcc-4.7.2-mingw32\bin\../lib/gcc/avr/4.7.2/../../../../avr/include/util\delay.h ****    * Neither the name of the copyright holders nor the names of
  18:d:\applications\keyboard\avr-gcc-4.7.2-mingw32\bin\../lib/gcc/avr/4.7.2/../../../../avr/include/util\delay.h ****      contributors may be used to endorse or promote products derived
  19:d:\applications\keyboard\avr-gcc-4.7.2-mingw32\bin\../lib/gcc/avr/4.7.2/../../../../avr/include/util\delay.h ****      from this software without specific prior written permission.
  20:d:\applications\keyboard\avr-gcc-4.7.2-mingw32\bin\../lib/gcc/avr/4.7.2/../../../../avr/include/util\delay.h **** 
  21:d:\applications\keyboard\avr-gcc-4.7.2-mingw32\bin\../lib/gcc/avr/4.7.2/../../../../avr/include/util\delay.h ****   THIS SOFTWARE IS PROVIDED BY THE COPYRIGHT HOLDERS AND CONTRIBUTORS "AS IS"
  22:d:\applications\keyboard\avr-gcc-4.7.2-mingw32\bin\../lib/gcc/avr/4.7.2/../../../../avr/include/util\delay.h ****   AND ANY EXPRESS OR IMPLIED WARRANTIES, INCLUDING, BUT NOT LIMITED TO, THE
  23:d:\applications\keyboard\avr-gcc-4.7.2-mingw32\bin\../lib/gcc/avr/4.7.2/../../../../avr/include/util\delay.h ****   IMPLIED WARRANTIES OF MERCHANTABILITY AND FITNESS FOR A PARTICULAR PURPOSE
  24:d:\applications\keyboard\avr-gcc-4.7.2-mingw32\bin\../lib/gcc/avr/4.7.2/../../../../avr/include/util\delay.h ****   ARE DISCLAIMED. IN NO EVENT SHALL THE COPYRIGHT OWNER OR CONTRIBUTORS BE
  25:d:\applications\keyboard\avr-gcc-4.7.2-mingw32\bin\../lib/gcc/avr/4.7.2/../../../../avr/include/util\delay.h ****   LIABLE FOR ANY DIRECT, INDIRECT, INCIDENTAL, SPECIAL, EXEMPLARY, OR
  26:d:\applications\keyboard\avr-gcc-4.7.2-mingw32\bin\../lib/gcc/avr/4.7.2/../../../../avr/include/util\delay.h ****   CONSEQUENTIAL DAMAGES (INCLUDING, BUT NOT LIMITED TO, PROCUREMENT OF
  27:d:\applications\keyboard\avr-gcc-4.7.2-mingw32\bin\../lib/gcc/avr/4.7.2/../../../../avr/include/util\delay.h ****   SUBSTITUTE GOODS OR SERVICES; LOSS OF USE, DATA, OR PROFITS; OR BUSINESS
  28:d:\applications\keyboard\avr-gcc-4.7.2-mingw32\bin\../lib/gcc/avr/4.7.2/../../../../avr/include/util\delay.h ****   INTERRUPTION) HOWEVER CAUSED AND ON ANY THEORY OF LIABILITY, WHETHER IN
  29:d:\applications\keyboard\avr-gcc-4.7.2-mingw32\bin\../lib/gcc/avr/4.7.2/../../../../avr/include/util\delay.h ****   CONTRACT, STRICT LIABILITY, OR TORT (INCLUDING NEGLIGENCE OR OTHERWISE)
  30:d:\applications\keyboard\avr-gcc-4.7.2-mingw32\bin\../lib/gcc/avr/4.7.2/../../../../avr/include/util\delay.h ****   ARISING IN ANY WAY OUT OF THE USE OF THIS SOFTWARE, EVEN IF ADVISED OF THE
  31:d:\applications\keyboard\avr-gcc-4.7.2-mingw32\bin\../lib/gcc/avr/4.7.2/../../../../avr/include/util\delay.h ****   POSSIBILITY OF SUCH DAMAGE. */
  32:d:\applications\keyboard\avr-gcc-4.7.2-mingw32\bin\../lib/gcc/avr/4.7.2/../../../../avr/include/util\delay.h **** 
  33:d:\applications\keyboard\avr-gcc-4.7.2-mingw32\bin\../lib/gcc/avr/4.7.2/../../../../avr/include/util\delay.h **** /* $Id: delay.h.in 2251 2011-09-14 08:20:33Z joerg_wunsch $ */
  34:d:\applications\keyboard\avr-gcc-4.7.2-mingw32\bin\../lib/gcc/avr/4.7.2/../../../../avr/include/util\delay.h **** 
  35:d:\applications\keyboard\avr-gcc-4.7.2-mingw32\bin\../lib/gcc/avr/4.7.2/../../../../avr/include/util\delay.h **** #ifndef _UTIL_DELAY_H_
  36:d:\applications\keyboard\avr-gcc-4.7.2-mingw32\bin\../lib/gcc/avr/4.7.2/../../../../avr/include/util\delay.h **** #define _UTIL_DELAY_H_ 1
  37:d:\applications\keyboard\avr-gcc-4.7.2-mingw32\bin\../lib/gcc/avr/4.7.2/../../../../avr/include/util\delay.h **** 
  38:d:\applications\keyboard\avr-gcc-4.7.2-mingw32\bin\../lib/gcc/avr/4.7.2/../../../../avr/include/util\delay.h **** #ifndef __HAS_DELAY_CYCLES
  39:d:\applications\keyboard\avr-gcc-4.7.2-mingw32\bin\../lib/gcc/avr/4.7.2/../../../../avr/include/util\delay.h **** #define __HAS_DELAY_CYCLES 1
  40:d:\applications\keyboard\avr-gcc-4.7.2-mingw32\bin\../lib/gcc/avr/4.7.2/../../../../avr/include/util\delay.h **** #endif
  41:d:\applications\keyboard\avr-gcc-4.7.2-mingw32\bin\../lib/gcc/avr/4.7.2/../../../../avr/include/util\delay.h **** 
  42:d:\applications\keyboard\avr-gcc-4.7.2-mingw32\bin\../lib/gcc/avr/4.7.2/../../../../avr/include/util\delay.h **** #include <inttypes.h>
  43:d:\applications\keyboard\avr-gcc-4.7.2-mingw32\bin\../lib/gcc/avr/4.7.2/../../../../avr/include/util\delay.h **** #include <util/delay_basic.h>
  44:d:\applications\keyboard\avr-gcc-4.7.2-mingw32\bin\../lib/gcc/avr/4.7.2/../../../../avr/include/util\delay.h **** #include <math.h>
  45:d:\applications\keyboard\avr-gcc-4.7.2-mingw32\bin\../lib/gcc/avr/4.7.2/../../../../avr/include/util\delay.h **** 
  46:d:\applications\keyboard\avr-gcc-4.7.2-mingw32\bin\../lib/gcc/avr/4.7.2/../../../../avr/include/util\delay.h **** /** \file */
  47:d:\applications\keyboard\avr-gcc-4.7.2-mingw32\bin\../lib/gcc/avr/4.7.2/../../../../avr/include/util\delay.h **** /** \defgroup util_delay <util/delay.h>: Convenience functions for busy-wait delay loops
  48:d:\applications\keyboard\avr-gcc-4.7.2-mingw32\bin\../lib/gcc/avr/4.7.2/../../../../avr/include/util\delay.h ****     \code
  49:d:\applications\keyboard\avr-gcc-4.7.2-mingw32\bin\../lib/gcc/avr/4.7.2/../../../../avr/include/util\delay.h ****     #define F_CPU 1000000UL  // 1 MHz
  50:d:\applications\keyboard\avr-gcc-4.7.2-mingw32\bin\../lib/gcc/avr/4.7.2/../../../../avr/include/util\delay.h ****     //#define F_CPU 14.7456E6
  51:d:\applications\keyboard\avr-gcc-4.7.2-mingw32\bin\../lib/gcc/avr/4.7.2/../../../../avr/include/util\delay.h ****     #include <util/delay.h>
  52:d:\applications\keyboard\avr-gcc-4.7.2-mingw32\bin\../lib/gcc/avr/4.7.2/../../../../avr/include/util\delay.h ****     \endcode
  53:d:\applications\keyboard\avr-gcc-4.7.2-mingw32\bin\../lib/gcc/avr/4.7.2/../../../../avr/include/util\delay.h **** 
  54:d:\applications\keyboard\avr-gcc-4.7.2-mingw32\bin\../lib/gcc/avr/4.7.2/../../../../avr/include/util\delay.h ****     \note As an alternative method, it is possible to pass the
  55:d:\applications\keyboard\avr-gcc-4.7.2-mingw32\bin\../lib/gcc/avr/4.7.2/../../../../avr/include/util\delay.h ****     F_CPU macro down to the compiler from the Makefile.
  56:d:\applications\keyboard\avr-gcc-4.7.2-mingw32\bin\../lib/gcc/avr/4.7.2/../../../../avr/include/util\delay.h ****     Obviously, in that case, no \c \#define statement should be
  57:d:\applications\keyboard\avr-gcc-4.7.2-mingw32\bin\../lib/gcc/avr/4.7.2/../../../../avr/include/util\delay.h ****     used.
  58:d:\applications\keyboard\avr-gcc-4.7.2-mingw32\bin\../lib/gcc/avr/4.7.2/../../../../avr/include/util\delay.h **** 
  59:d:\applications\keyboard\avr-gcc-4.7.2-mingw32\bin\../lib/gcc/avr/4.7.2/../../../../avr/include/util\delay.h ****     The functions in this header file are wrappers around the basic
  60:d:\applications\keyboard\avr-gcc-4.7.2-mingw32\bin\../lib/gcc/avr/4.7.2/../../../../avr/include/util\delay.h ****     busy-wait functions from <util/delay_basic.h>.  They are meant as
  61:d:\applications\keyboard\avr-gcc-4.7.2-mingw32\bin\../lib/gcc/avr/4.7.2/../../../../avr/include/util\delay.h ****     convenience functions where actual time values can be specified
  62:d:\applications\keyboard\avr-gcc-4.7.2-mingw32\bin\../lib/gcc/avr/4.7.2/../../../../avr/include/util\delay.h ****     rather than a number of cycles to wait for.  The idea behind is
  63:d:\applications\keyboard\avr-gcc-4.7.2-mingw32\bin\../lib/gcc/avr/4.7.2/../../../../avr/include/util\delay.h ****     that compile-time constant expressions will be eliminated by
  64:d:\applications\keyboard\avr-gcc-4.7.2-mingw32\bin\../lib/gcc/avr/4.7.2/../../../../avr/include/util\delay.h ****     compiler optimization so floating-point expressions can be used
  65:d:\applications\keyboard\avr-gcc-4.7.2-mingw32\bin\../lib/gcc/avr/4.7.2/../../../../avr/include/util\delay.h ****     to calculate the number of delay cycles needed based on the CPU
  66:d:\applications\keyboard\avr-gcc-4.7.2-mingw32\bin\../lib/gcc/avr/4.7.2/../../../../avr/include/util\delay.h ****     frequency passed by the macro F_CPU.
  67:d:\applications\keyboard\avr-gcc-4.7.2-mingw32\bin\../lib/gcc/avr/4.7.2/../../../../avr/include/util\delay.h **** 
  68:d:\applications\keyboard\avr-gcc-4.7.2-mingw32\bin\../lib/gcc/avr/4.7.2/../../../../avr/include/util\delay.h ****     \note In order for these functions to work as intended, compiler
  69:d:\applications\keyboard\avr-gcc-4.7.2-mingw32\bin\../lib/gcc/avr/4.7.2/../../../../avr/include/util\delay.h ****     optimizations <em>must</em> be enabled, and the delay time
  70:d:\applications\keyboard\avr-gcc-4.7.2-mingw32\bin\../lib/gcc/avr/4.7.2/../../../../avr/include/util\delay.h ****     <em>must</em> be an expression that is a known constant at
  71:d:\applications\keyboard\avr-gcc-4.7.2-mingw32\bin\../lib/gcc/avr/4.7.2/../../../../avr/include/util\delay.h ****     compile-time.  If these requirements are not met, the resulting
  72:d:\applications\keyboard\avr-gcc-4.7.2-mingw32\bin\../lib/gcc/avr/4.7.2/../../../../avr/include/util\delay.h ****     delay will be much longer (and basically unpredictable), and
  73:d:\applications\keyboard\avr-gcc-4.7.2-mingw32\bin\../lib/gcc/avr/4.7.2/../../../../avr/include/util\delay.h ****     applications that otherwise do not use floating-point calculations
  74:d:\applications\keyboard\avr-gcc-4.7.2-mingw32\bin\../lib/gcc/avr/4.7.2/../../../../avr/include/util\delay.h ****     will experience severe code bloat by the floating-point library
  75:d:\applications\keyboard\avr-gcc-4.7.2-mingw32\bin\../lib/gcc/avr/4.7.2/../../../../avr/include/util\delay.h ****     routines linked into the application.
  76:d:\applications\keyboard\avr-gcc-4.7.2-mingw32\bin\../lib/gcc/avr/4.7.2/../../../../avr/include/util\delay.h **** 
  77:d:\applications\keyboard\avr-gcc-4.7.2-mingw32\bin\../lib/gcc/avr/4.7.2/../../../../avr/include/util\delay.h ****     The functions available allow the specification of microsecond, and
  78:d:\applications\keyboard\avr-gcc-4.7.2-mingw32\bin\../lib/gcc/avr/4.7.2/../../../../avr/include/util\delay.h ****     millisecond delays directly, using the application-supplied macro
  79:d:\applications\keyboard\avr-gcc-4.7.2-mingw32\bin\../lib/gcc/avr/4.7.2/../../../../avr/include/util\delay.h ****     F_CPU as the CPU clock frequency (in Hertz).
  80:d:\applications\keyboard\avr-gcc-4.7.2-mingw32\bin\../lib/gcc/avr/4.7.2/../../../../avr/include/util\delay.h **** 
  81:d:\applications\keyboard\avr-gcc-4.7.2-mingw32\bin\../lib/gcc/avr/4.7.2/../../../../avr/include/util\delay.h **** */
  82:d:\applications\keyboard\avr-gcc-4.7.2-mingw32\bin\../lib/gcc/avr/4.7.2/../../../../avr/include/util\delay.h **** 
  83:d:\applications\keyboard\avr-gcc-4.7.2-mingw32\bin\../lib/gcc/avr/4.7.2/../../../../avr/include/util\delay.h **** #if !defined(__DOXYGEN__)
  84:d:\applications\keyboard\avr-gcc-4.7.2-mingw32\bin\../lib/gcc/avr/4.7.2/../../../../avr/include/util\delay.h **** static inline void _delay_us(double __us) __attribute__((always_inline));
  85:d:\applications\keyboard\avr-gcc-4.7.2-mingw32\bin\../lib/gcc/avr/4.7.2/../../../../avr/include/util\delay.h **** static inline void _delay_ms(double __ms) __attribute__((always_inline));
  86:d:\applications\keyboard\avr-gcc-4.7.2-mingw32\bin\../lib/gcc/avr/4.7.2/../../../../avr/include/util\delay.h **** #endif
  87:d:\applications\keyboard\avr-gcc-4.7.2-mingw32\bin\../lib/gcc/avr/4.7.2/../../../../avr/include/util\delay.h **** 
  88:d:\applications\keyboard\avr-gcc-4.7.2-mingw32\bin\../lib/gcc/avr/4.7.2/../../../../avr/include/util\delay.h **** #ifndef F_CPU
  89:d:\applications\keyboard\avr-gcc-4.7.2-mingw32\bin\../lib/gcc/avr/4.7.2/../../../../avr/include/util\delay.h **** /* prevent compiler error by supplying a default */
  90:d:\applications\keyboard\avr-gcc-4.7.2-mingw32\bin\../lib/gcc/avr/4.7.2/../../../../avr/include/util\delay.h **** # warning "F_CPU not defined for <util/delay.h>"
  91:d:\applications\keyboard\avr-gcc-4.7.2-mingw32\bin\../lib/gcc/avr/4.7.2/../../../../avr/include/util\delay.h **** # define F_CPU 1000000UL
  92:d:\applications\keyboard\avr-gcc-4.7.2-mingw32\bin\../lib/gcc/avr/4.7.2/../../../../avr/include/util\delay.h **** #endif
  93:d:\applications\keyboard\avr-gcc-4.7.2-mingw32\bin\../lib/gcc/avr/4.7.2/../../../../avr/include/util\delay.h **** 
  94:d:\applications\keyboard\avr-gcc-4.7.2-mingw32\bin\../lib/gcc/avr/4.7.2/../../../../avr/include/util\delay.h **** #ifndef __OPTIMIZE__
  95:d:\applications\keyboard\avr-gcc-4.7.2-mingw32\bin\../lib/gcc/avr/4.7.2/../../../../avr/include/util\delay.h **** # warning "Compiler optimizations disabled; functions from <util/delay.h> won't work as designed"
  96:d:\applications\keyboard\avr-gcc-4.7.2-mingw32\bin\../lib/gcc/avr/4.7.2/../../../../avr/include/util\delay.h **** #endif
  97:d:\applications\keyboard\avr-gcc-4.7.2-mingw32\bin\../lib/gcc/avr/4.7.2/../../../../avr/include/util\delay.h **** 
  98:d:\applications\keyboard\avr-gcc-4.7.2-mingw32\bin\../lib/gcc/avr/4.7.2/../../../../avr/include/util\delay.h **** #if __HAS_DELAY_CYCLES && defined(__OPTIMIZE__) && \
  99:d:\applications\keyboard\avr-gcc-4.7.2-mingw32\bin\../lib/gcc/avr/4.7.2/../../../../avr/include/util\delay.h ****   !defined(__DELAY_BACKWARD_COMPATIBLE__) &&	   \
 100:d:\applications\keyboard\avr-gcc-4.7.2-mingw32\bin\../lib/gcc/avr/4.7.2/../../../../avr/include/util\delay.h ****   __STDC_HOSTED__
 101:d:\applications\keyboard\avr-gcc-4.7.2-mingw32\bin\../lib/gcc/avr/4.7.2/../../../../avr/include/util\delay.h **** #  include <math.h>
 102:d:\applications\keyboard\avr-gcc-4.7.2-mingw32\bin\../lib/gcc/avr/4.7.2/../../../../avr/include/util\delay.h **** #endif
 103:d:\applications\keyboard\avr-gcc-4.7.2-mingw32\bin\../lib/gcc/avr/4.7.2/../../../../avr/include/util\delay.h **** 
 104:d:\applications\keyboard\avr-gcc-4.7.2-mingw32\bin\../lib/gcc/avr/4.7.2/../../../../avr/include/util\delay.h **** /**
 105:d:\applications\keyboard\avr-gcc-4.7.2-mingw32\bin\../lib/gcc/avr/4.7.2/../../../../avr/include/util\delay.h ****    \ingroup util_delay
 106:d:\applications\keyboard\avr-gcc-4.7.2-mingw32\bin\../lib/gcc/avr/4.7.2/../../../../avr/include/util\delay.h **** 
 107:d:\applications\keyboard\avr-gcc-4.7.2-mingw32\bin\../lib/gcc/avr/4.7.2/../../../../avr/include/util\delay.h ****    Perform a delay of \c __ms milliseconds, using _delay_loop_2().
 108:d:\applications\keyboard\avr-gcc-4.7.2-mingw32\bin\../lib/gcc/avr/4.7.2/../../../../avr/include/util\delay.h **** 
 109:d:\applications\keyboard\avr-gcc-4.7.2-mingw32\bin\../lib/gcc/avr/4.7.2/../../../../avr/include/util\delay.h ****    The macro F_CPU is supposed to be defined to a
 110:d:\applications\keyboard\avr-gcc-4.7.2-mingw32\bin\../lib/gcc/avr/4.7.2/../../../../avr/include/util\delay.h ****    constant defining the CPU clock frequency (in Hertz).
 111:d:\applications\keyboard\avr-gcc-4.7.2-mingw32\bin\../lib/gcc/avr/4.7.2/../../../../avr/include/util\delay.h **** 
 112:d:\applications\keyboard\avr-gcc-4.7.2-mingw32\bin\../lib/gcc/avr/4.7.2/../../../../avr/include/util\delay.h ****    The maximal possible delay is 262.14 ms / F_CPU in MHz.
 113:d:\applications\keyboard\avr-gcc-4.7.2-mingw32\bin\../lib/gcc/avr/4.7.2/../../../../avr/include/util\delay.h **** 
 114:d:\applications\keyboard\avr-gcc-4.7.2-mingw32\bin\../lib/gcc/avr/4.7.2/../../../../avr/include/util\delay.h ****    When the user request delay which exceed the maximum possible one,
 115:d:\applications\keyboard\avr-gcc-4.7.2-mingw32\bin\../lib/gcc/avr/4.7.2/../../../../avr/include/util\delay.h ****    _delay_ms() provides a decreased resolution functionality. In this
 116:d:\applications\keyboard\avr-gcc-4.7.2-mingw32\bin\../lib/gcc/avr/4.7.2/../../../../avr/include/util\delay.h ****    mode _delay_ms() will work with a resolution of 1/10 ms, providing
 117:d:\applications\keyboard\avr-gcc-4.7.2-mingw32\bin\../lib/gcc/avr/4.7.2/../../../../avr/include/util\delay.h ****    delays up to 6.5535 seconds (independent from CPU frequency).  The
 118:d:\applications\keyboard\avr-gcc-4.7.2-mingw32\bin\../lib/gcc/avr/4.7.2/../../../../avr/include/util\delay.h ****    user will not be informed about decreased resolution.
 119:d:\applications\keyboard\avr-gcc-4.7.2-mingw32\bin\../lib/gcc/avr/4.7.2/../../../../avr/include/util\delay.h **** 
 120:d:\applications\keyboard\avr-gcc-4.7.2-mingw32\bin\../lib/gcc/avr/4.7.2/../../../../avr/include/util\delay.h ****    If the avr-gcc toolchain has __builtin_avr_delay_cycles(unsigned long)
 121:d:\applications\keyboard\avr-gcc-4.7.2-mingw32\bin\../lib/gcc/avr/4.7.2/../../../../avr/include/util\delay.h ****    support, maximal possible delay is 4294967.295 ms/ F_CPU in MHz. For
 122:d:\applications\keyboard\avr-gcc-4.7.2-mingw32\bin\../lib/gcc/avr/4.7.2/../../../../avr/include/util\delay.h ****    values greater than the maximal possible delay, overflows results in
 123:d:\applications\keyboard\avr-gcc-4.7.2-mingw32\bin\../lib/gcc/avr/4.7.2/../../../../avr/include/util\delay.h ****    no delay i.e., 0ms.
 124:d:\applications\keyboard\avr-gcc-4.7.2-mingw32\bin\../lib/gcc/avr/4.7.2/../../../../avr/include/util\delay.h **** 
 125:d:\applications\keyboard\avr-gcc-4.7.2-mingw32\bin\../lib/gcc/avr/4.7.2/../../../../avr/include/util\delay.h ****    Conversion of __us into clock cycles may not always result in integer.
 126:d:\applications\keyboard\avr-gcc-4.7.2-mingw32\bin\../lib/gcc/avr/4.7.2/../../../../avr/include/util\delay.h ****    By default, the clock cycles rounded up to next integer. This ensures that
 127:d:\applications\keyboard\avr-gcc-4.7.2-mingw32\bin\../lib/gcc/avr/4.7.2/../../../../avr/include/util\delay.h ****    the user gets atleast __us microseconds of delay.
 128:d:\applications\keyboard\avr-gcc-4.7.2-mingw32\bin\../lib/gcc/avr/4.7.2/../../../../avr/include/util\delay.h **** 
 129:d:\applications\keyboard\avr-gcc-4.7.2-mingw32\bin\../lib/gcc/avr/4.7.2/../../../../avr/include/util\delay.h ****    Alternatively, user can define __DELAY_ROUND_DOWN__ and __DELAY_ROUND_CLOSEST__
 130:d:\applications\keyboard\avr-gcc-4.7.2-mingw32\bin\../lib/gcc/avr/4.7.2/../../../../avr/include/util\delay.h ****    to round down and round to closest integer.
 131:d:\applications\keyboard\avr-gcc-4.7.2-mingw32\bin\../lib/gcc/avr/4.7.2/../../../../avr/include/util\delay.h **** 
 132:d:\applications\keyboard\avr-gcc-4.7.2-mingw32\bin\../lib/gcc/avr/4.7.2/../../../../avr/include/util\delay.h ****    Note: The new implementation of _delay_ms(double __ms) with 
 133:d:\applications\keyboard\avr-gcc-4.7.2-mingw32\bin\../lib/gcc/avr/4.7.2/../../../../avr/include/util\delay.h ****     __builtin_avr_delay_cycles(unsigned long) support is not backward compatible. 
 134:d:\applications\keyboard\avr-gcc-4.7.2-mingw32\bin\../lib/gcc/avr/4.7.2/../../../../avr/include/util\delay.h ****    User can define __DELAY_BACKWARD_COMPATIBLE__ to get a backward compatible delay.
 135:d:\applications\keyboard\avr-gcc-4.7.2-mingw32\bin\../lib/gcc/avr/4.7.2/../../../../avr/include/util\delay.h ****    Also, the backward compatible
 136:d:\applications\keyboard\avr-gcc-4.7.2-mingw32\bin\../lib/gcc/avr/4.7.2/../../../../avr/include/util\delay.h ****    algorithm will be chosen if the code is compiled in a <em>freestanding
 137:d:\applications\keyboard\avr-gcc-4.7.2-mingw32\bin\../lib/gcc/avr/4.7.2/../../../../avr/include/util\delay.h ****    environment</em> (GCC option \c -ffreestanding), as the math functions
 138:d:\applications\keyboard\avr-gcc-4.7.2-mingw32\bin\../lib/gcc/avr/4.7.2/../../../../avr/include/util\delay.h ****    required for rounding are not available to the compiler then.
 139:d:\applications\keyboard\avr-gcc-4.7.2-mingw32\bin\../lib/gcc/avr/4.7.2/../../../../avr/include/util\delay.h **** 
 140:d:\applications\keyboard\avr-gcc-4.7.2-mingw32\bin\../lib/gcc/avr/4.7.2/../../../../avr/include/util\delay.h ****  */
 141:d:\applications\keyboard\avr-gcc-4.7.2-mingw32\bin\../lib/gcc/avr/4.7.2/../../../../avr/include/util\delay.h **** void
 142:d:\applications\keyboard\avr-gcc-4.7.2-mingw32\bin\../lib/gcc/avr/4.7.2/../../../../avr/include/util\delay.h **** _delay_ms(double __ms)
 143:d:\applications\keyboard\avr-gcc-4.7.2-mingw32\bin\../lib/gcc/avr/4.7.2/../../../../avr/include/util\delay.h **** {
 144:d:\applications\keyboard\avr-gcc-4.7.2-mingw32\bin\../lib/gcc/avr/4.7.2/../../../../avr/include/util\delay.h **** 	uint16_t __ticks;
 145:d:\applications\keyboard\avr-gcc-4.7.2-mingw32\bin\../lib/gcc/avr/4.7.2/../../../../avr/include/util\delay.h **** 	double __tmp ; 
 146:d:\applications\keyboard\avr-gcc-4.7.2-mingw32\bin\../lib/gcc/avr/4.7.2/../../../../avr/include/util\delay.h **** #if __HAS_DELAY_CYCLES && defined(__OPTIMIZE__) && \
 147:d:\applications\keyboard\avr-gcc-4.7.2-mingw32\bin\../lib/gcc/avr/4.7.2/../../../../avr/include/util\delay.h ****   !defined(__DELAY_BACKWARD_COMPATIBLE__) &&	   \
 148:d:\applications\keyboard\avr-gcc-4.7.2-mingw32\bin\../lib/gcc/avr/4.7.2/../../../../avr/include/util\delay.h ****   __STDC_HOSTED__
 149:d:\applications\keyboard\avr-gcc-4.7.2-mingw32\bin\../lib/gcc/avr/4.7.2/../../../../avr/include/util\delay.h **** 	uint32_t __ticks_dc;
 150:d:\applications\keyboard\avr-gcc-4.7.2-mingw32\bin\../lib/gcc/avr/4.7.2/../../../../avr/include/util\delay.h **** 	extern void __builtin_avr_delay_cycles(unsigned long);
 151:d:\applications\keyboard\avr-gcc-4.7.2-mingw32\bin\../lib/gcc/avr/4.7.2/../../../../avr/include/util\delay.h **** 	__tmp = ((F_CPU) / 1e3) * __ms;
 152:d:\applications\keyboard\avr-gcc-4.7.2-mingw32\bin\../lib/gcc/avr/4.7.2/../../../../avr/include/util\delay.h **** 
 153:d:\applications\keyboard\avr-gcc-4.7.2-mingw32\bin\../lib/gcc/avr/4.7.2/../../../../avr/include/util\delay.h **** 	#if defined(__DELAY_ROUND_DOWN__)
 154:d:\applications\keyboard\avr-gcc-4.7.2-mingw32\bin\../lib/gcc/avr/4.7.2/../../../../avr/include/util\delay.h **** 		__ticks_dc = (uint32_t)fabs(__tmp);
 155:d:\applications\keyboard\avr-gcc-4.7.2-mingw32\bin\../lib/gcc/avr/4.7.2/../../../../avr/include/util\delay.h **** 
 156:d:\applications\keyboard\avr-gcc-4.7.2-mingw32\bin\../lib/gcc/avr/4.7.2/../../../../avr/include/util\delay.h **** 	#elif defined(__DELAY_ROUND_CLOSEST__)
 157:d:\applications\keyboard\avr-gcc-4.7.2-mingw32\bin\../lib/gcc/avr/4.7.2/../../../../avr/include/util\delay.h **** 		__ticks_dc = (uint32_t)(fabs(__tmp)+0.5);
 158:d:\applications\keyboard\avr-gcc-4.7.2-mingw32\bin\../lib/gcc/avr/4.7.2/../../../../avr/include/util\delay.h **** 
 159:d:\applications\keyboard\avr-gcc-4.7.2-mingw32\bin\../lib/gcc/avr/4.7.2/../../../../avr/include/util\delay.h **** 	#else
 160:d:\applications\keyboard\avr-gcc-4.7.2-mingw32\bin\../lib/gcc/avr/4.7.2/../../../../avr/include/util\delay.h **** 		//round up by default
 161:d:\applications\keyboard\avr-gcc-4.7.2-mingw32\bin\../lib/gcc/avr/4.7.2/../../../../avr/include/util\delay.h **** 		__ticks_dc = (uint32_t)(ceil(fabs(__tmp)));
 162:d:\applications\keyboard\avr-gcc-4.7.2-mingw32\bin\../lib/gcc/avr/4.7.2/../../../../avr/include/util\delay.h **** 	#endif
 163:d:\applications\keyboard\avr-gcc-4.7.2-mingw32\bin\../lib/gcc/avr/4.7.2/../../../../avr/include/util\delay.h **** 
 164:d:\applications\keyboard\avr-gcc-4.7.2-mingw32\bin\../lib/gcc/avr/4.7.2/../../../../avr/include/util\delay.h **** 	__builtin_avr_delay_cycles(__ticks_dc);
 165:d:\applications\keyboard\avr-gcc-4.7.2-mingw32\bin\../lib/gcc/avr/4.7.2/../../../../avr/include/util\delay.h **** 
 166:d:\applications\keyboard\avr-gcc-4.7.2-mingw32\bin\../lib/gcc/avr/4.7.2/../../../../avr/include/util\delay.h **** #else
 167:d:\applications\keyboard\avr-gcc-4.7.2-mingw32\bin\../lib/gcc/avr/4.7.2/../../../../avr/include/util\delay.h **** 	__tmp = ((F_CPU) / 4e3) * __ms;
 168:d:\applications\keyboard\avr-gcc-4.7.2-mingw32\bin\../lib/gcc/avr/4.7.2/../../../../avr/include/util\delay.h **** 	if (__tmp < 1.0)
 169:d:\applications\keyboard\avr-gcc-4.7.2-mingw32\bin\../lib/gcc/avr/4.7.2/../../../../avr/include/util\delay.h **** 		__ticks = 1;
 170:d:\applications\keyboard\avr-gcc-4.7.2-mingw32\bin\../lib/gcc/avr/4.7.2/../../../../avr/include/util\delay.h **** 	else if (__tmp > 65535)
 171:d:\applications\keyboard\avr-gcc-4.7.2-mingw32\bin\../lib/gcc/avr/4.7.2/../../../../avr/include/util\delay.h **** 	{
 172:d:\applications\keyboard\avr-gcc-4.7.2-mingw32\bin\../lib/gcc/avr/4.7.2/../../../../avr/include/util\delay.h **** 		//	__ticks = requested delay in 1/10 ms
 173:d:\applications\keyboard\avr-gcc-4.7.2-mingw32\bin\../lib/gcc/avr/4.7.2/../../../../avr/include/util\delay.h **** 		__ticks = (uint16_t) (__ms * 10.0);
 174:d:\applications\keyboard\avr-gcc-4.7.2-mingw32\bin\../lib/gcc/avr/4.7.2/../../../../avr/include/util\delay.h **** 		while(__ticks)
 175:d:\applications\keyboard\avr-gcc-4.7.2-mingw32\bin\../lib/gcc/avr/4.7.2/../../../../avr/include/util\delay.h **** 		{
 176:d:\applications\keyboard\avr-gcc-4.7.2-mingw32\bin\../lib/gcc/avr/4.7.2/../../../../avr/include/util\delay.h **** 			// wait 1/10 ms
 177:d:\applications\keyboard\avr-gcc-4.7.2-mingw32\bin\../lib/gcc/avr/4.7.2/../../../../avr/include/util\delay.h **** 			_delay_loop_2(((F_CPU) / 4e3) / 10);
 178:d:\applications\keyboard\avr-gcc-4.7.2-mingw32\bin\../lib/gcc/avr/4.7.2/../../../../avr/include/util\delay.h **** 			__ticks --;
 179:d:\applications\keyboard\avr-gcc-4.7.2-mingw32\bin\../lib/gcc/avr/4.7.2/../../../../avr/include/util\delay.h **** 		}
 180:d:\applications\keyboard\avr-gcc-4.7.2-mingw32\bin\../lib/gcc/avr/4.7.2/../../../../avr/include/util\delay.h **** 		return;
 181:d:\applications\keyboard\avr-gcc-4.7.2-mingw32\bin\../lib/gcc/avr/4.7.2/../../../../avr/include/util\delay.h **** 	}
 182:d:\applications\keyboard\avr-gcc-4.7.2-mingw32\bin\../lib/gcc/avr/4.7.2/../../../../avr/include/util\delay.h **** 	else
 183:d:\applications\keyboard\avr-gcc-4.7.2-mingw32\bin\../lib/gcc/avr/4.7.2/../../../../avr/include/util\delay.h **** 		__ticks = (uint16_t)__tmp;
 184:d:\applications\keyboard\avr-gcc-4.7.2-mingw32\bin\../lib/gcc/avr/4.7.2/../../../../avr/include/util\delay.h **** 	_delay_loop_2(__ticks);
 185:d:\applications\keyboard\avr-gcc-4.7.2-mingw32\bin\../lib/gcc/avr/4.7.2/../../../../avr/include/util\delay.h **** #endif
 186:d:\applications\keyboard\avr-gcc-4.7.2-mingw32\bin\../lib/gcc/avr/4.7.2/../../../../avr/include/util\delay.h **** }
 187:d:\applications\keyboard\avr-gcc-4.7.2-mingw32\bin\../lib/gcc/avr/4.7.2/../../../../avr/include/util\delay.h **** 
 188:d:\applications\keyboard\avr-gcc-4.7.2-mingw32\bin\../lib/gcc/avr/4.7.2/../../../../avr/include/util\delay.h **** /**
 189:d:\applications\keyboard\avr-gcc-4.7.2-mingw32\bin\../lib/gcc/avr/4.7.2/../../../../avr/include/util\delay.h ****    \ingroup util_delay
 190:d:\applications\keyboard\avr-gcc-4.7.2-mingw32\bin\../lib/gcc/avr/4.7.2/../../../../avr/include/util\delay.h **** 
 191:d:\applications\keyboard\avr-gcc-4.7.2-mingw32\bin\../lib/gcc/avr/4.7.2/../../../../avr/include/util\delay.h ****    Perform a delay of \c __us microseconds, using _delay_loop_1().
 192:d:\applications\keyboard\avr-gcc-4.7.2-mingw32\bin\../lib/gcc/avr/4.7.2/../../../../avr/include/util\delay.h **** 
 193:d:\applications\keyboard\avr-gcc-4.7.2-mingw32\bin\../lib/gcc/avr/4.7.2/../../../../avr/include/util\delay.h ****    The macro F_CPU is supposed to be defined to a
 194:d:\applications\keyboard\avr-gcc-4.7.2-mingw32\bin\../lib/gcc/avr/4.7.2/../../../../avr/include/util\delay.h ****    constant defining the CPU clock frequency (in Hertz).
 195:d:\applications\keyboard\avr-gcc-4.7.2-mingw32\bin\../lib/gcc/avr/4.7.2/../../../../avr/include/util\delay.h **** 
 196:d:\applications\keyboard\avr-gcc-4.7.2-mingw32\bin\../lib/gcc/avr/4.7.2/../../../../avr/include/util\delay.h ****    The maximal possible delay is 768 us / F_CPU in MHz.
 197:d:\applications\keyboard\avr-gcc-4.7.2-mingw32\bin\../lib/gcc/avr/4.7.2/../../../../avr/include/util\delay.h **** 
 198:d:\applications\keyboard\avr-gcc-4.7.2-mingw32\bin\../lib/gcc/avr/4.7.2/../../../../avr/include/util\delay.h ****    If the user requests a delay greater than the maximal possible one,
 199:d:\applications\keyboard\avr-gcc-4.7.2-mingw32\bin\../lib/gcc/avr/4.7.2/../../../../avr/include/util\delay.h ****    _delay_us() will automatically call _delay_ms() instead.  The user
 200:d:\applications\keyboard\avr-gcc-4.7.2-mingw32\bin\../lib/gcc/avr/4.7.2/../../../../avr/include/util\delay.h ****    will not be informed about this case.
 201:d:\applications\keyboard\avr-gcc-4.7.2-mingw32\bin\../lib/gcc/avr/4.7.2/../../../../avr/include/util\delay.h **** 
 202:d:\applications\keyboard\avr-gcc-4.7.2-mingw32\bin\../lib/gcc/avr/4.7.2/../../../../avr/include/util\delay.h ****    If the avr-gcc toolchain has __builtin_avr_delay_cycles(unsigned long)
 203:d:\applications\keyboard\avr-gcc-4.7.2-mingw32\bin\../lib/gcc/avr/4.7.2/../../../../avr/include/util\delay.h ****    support, maximal possible delay is 4294967.295 us/ F_CPU in MHz. For
 204:d:\applications\keyboard\avr-gcc-4.7.2-mingw32\bin\../lib/gcc/avr/4.7.2/../../../../avr/include/util\delay.h ****    values greater than the maximal possible delay, overflow results in
 205:d:\applications\keyboard\avr-gcc-4.7.2-mingw32\bin\../lib/gcc/avr/4.7.2/../../../../avr/include/util\delay.h ****    no delay i.e., 0us.
 206:d:\applications\keyboard\avr-gcc-4.7.2-mingw32\bin\../lib/gcc/avr/4.7.2/../../../../avr/include/util\delay.h ****   
 207:d:\applications\keyboard\avr-gcc-4.7.2-mingw32\bin\../lib/gcc/avr/4.7.2/../../../../avr/include/util\delay.h ****    Conversion of __us into clock cycles may not always result in integer.
 208:d:\applications\keyboard\avr-gcc-4.7.2-mingw32\bin\../lib/gcc/avr/4.7.2/../../../../avr/include/util\delay.h ****    By default, the clock cycles rounded up to next integer. This ensures that
 209:d:\applications\keyboard\avr-gcc-4.7.2-mingw32\bin\../lib/gcc/avr/4.7.2/../../../../avr/include/util\delay.h ****    the user gets atleast __us microseconds of delay.
 210:d:\applications\keyboard\avr-gcc-4.7.2-mingw32\bin\../lib/gcc/avr/4.7.2/../../../../avr/include/util\delay.h **** 
 211:d:\applications\keyboard\avr-gcc-4.7.2-mingw32\bin\../lib/gcc/avr/4.7.2/../../../../avr/include/util\delay.h ****    Alternatively, user can define __DELAY_ROUND_DOWN__ and __DELAY_ROUND_CLOSEST__
 212:d:\applications\keyboard\avr-gcc-4.7.2-mingw32\bin\../lib/gcc/avr/4.7.2/../../../../avr/include/util\delay.h ****    to round down and round to closest integer.
 213:d:\applications\keyboard\avr-gcc-4.7.2-mingw32\bin\../lib/gcc/avr/4.7.2/../../../../avr/include/util\delay.h ****  
 214:d:\applications\keyboard\avr-gcc-4.7.2-mingw32\bin\../lib/gcc/avr/4.7.2/../../../../avr/include/util\delay.h ****    Note: The new implementation of _delay_us(double __us) with 
 215:d:\applications\keyboard\avr-gcc-4.7.2-mingw32\bin\../lib/gcc/avr/4.7.2/../../../../avr/include/util\delay.h ****     __builtin_avr_delay_cycles(unsigned long) support is not backward compatible.
 216:d:\applications\keyboard\avr-gcc-4.7.2-mingw32\bin\../lib/gcc/avr/4.7.2/../../../../avr/include/util\delay.h ****    User can define __DELAY_BACKWARD_COMPATIBLE__ to get a backward compatible delay.
 217:d:\applications\keyboard\avr-gcc-4.7.2-mingw32\bin\../lib/gcc/avr/4.7.2/../../../../avr/include/util\delay.h ****    Also, the backward compatible
 218:d:\applications\keyboard\avr-gcc-4.7.2-mingw32\bin\../lib/gcc/avr/4.7.2/../../../../avr/include/util\delay.h ****    algorithm will be chosen if the code is compiled in a <em>freestanding
 219:d:\applications\keyboard\avr-gcc-4.7.2-mingw32\bin\../lib/gcc/avr/4.7.2/../../../../avr/include/util\delay.h ****    environment</em> (GCC option \c -ffreestanding), as the math functions
 220:d:\applications\keyboard\avr-gcc-4.7.2-mingw32\bin\../lib/gcc/avr/4.7.2/../../../../avr/include/util\delay.h ****    required for rounding are not available to the compiler then.
 221:d:\applications\keyboard\avr-gcc-4.7.2-mingw32\bin\../lib/gcc/avr/4.7.2/../../../../avr/include/util\delay.h **** 
 222:d:\applications\keyboard\avr-gcc-4.7.2-mingw32\bin\../lib/gcc/avr/4.7.2/../../../../avr/include/util\delay.h ****  */
 223:d:\applications\keyboard\avr-gcc-4.7.2-mingw32\bin\../lib/gcc/avr/4.7.2/../../../../avr/include/util\delay.h **** void
 224:d:\applications\keyboard\avr-gcc-4.7.2-mingw32\bin\../lib/gcc/avr/4.7.2/../../../../avr/include/util\delay.h **** _delay_us(double __us)
 225:d:\applications\keyboard\avr-gcc-4.7.2-mingw32\bin\../lib/gcc/avr/4.7.2/../../../../avr/include/util\delay.h **** {
 226:d:\applications\keyboard\avr-gcc-4.7.2-mingw32\bin\../lib/gcc/avr/4.7.2/../../../../avr/include/util\delay.h **** 	uint8_t __ticks;
 227:d:\applications\keyboard\avr-gcc-4.7.2-mingw32\bin\../lib/gcc/avr/4.7.2/../../../../avr/include/util\delay.h **** 	double __tmp ; 
 228:d:\applications\keyboard\avr-gcc-4.7.2-mingw32\bin\../lib/gcc/avr/4.7.2/../../../../avr/include/util\delay.h **** #if __HAS_DELAY_CYCLES && defined(__OPTIMIZE__) && \
 229:d:\applications\keyboard\avr-gcc-4.7.2-mingw32\bin\../lib/gcc/avr/4.7.2/../../../../avr/include/util\delay.h ****   !defined(__DELAY_BACKWARD_COMPATIBLE__) &&	   \
 230:d:\applications\keyboard\avr-gcc-4.7.2-mingw32\bin\../lib/gcc/avr/4.7.2/../../../../avr/include/util\delay.h ****   __STDC_HOSTED__
 231:d:\applications\keyboard\avr-gcc-4.7.2-mingw32\bin\../lib/gcc/avr/4.7.2/../../../../avr/include/util\delay.h **** 	uint32_t __ticks_dc;
 232:d:\applications\keyboard\avr-gcc-4.7.2-mingw32\bin\../lib/gcc/avr/4.7.2/../../../../avr/include/util\delay.h **** 	extern void __builtin_avr_delay_cycles(unsigned long);
 233:d:\applications\keyboard\avr-gcc-4.7.2-mingw32\bin\../lib/gcc/avr/4.7.2/../../../../avr/include/util\delay.h **** 	__tmp = ((F_CPU) / 1e6) * __us;
 234:d:\applications\keyboard\avr-gcc-4.7.2-mingw32\bin\../lib/gcc/avr/4.7.2/../../../../avr/include/util\delay.h **** 
 235:d:\applications\keyboard\avr-gcc-4.7.2-mingw32\bin\../lib/gcc/avr/4.7.2/../../../../avr/include/util\delay.h **** 	#if defined(__DELAY_ROUND_DOWN__)
 236:d:\applications\keyboard\avr-gcc-4.7.2-mingw32\bin\../lib/gcc/avr/4.7.2/../../../../avr/include/util\delay.h **** 		__ticks_dc = (uint32_t)fabs(__tmp);
 237:d:\applications\keyboard\avr-gcc-4.7.2-mingw32\bin\../lib/gcc/avr/4.7.2/../../../../avr/include/util\delay.h **** 
 238:d:\applications\keyboard\avr-gcc-4.7.2-mingw32\bin\../lib/gcc/avr/4.7.2/../../../../avr/include/util\delay.h **** 	#elif defined(__DELAY_ROUND_CLOSEST__)
 239:d:\applications\keyboard\avr-gcc-4.7.2-mingw32\bin\../lib/gcc/avr/4.7.2/../../../../avr/include/util\delay.h **** 		__ticks_dc = (uint32_t)(fabs(__tmp)+0.5);
 240:d:\applications\keyboard\avr-gcc-4.7.2-mingw32\bin\../lib/gcc/avr/4.7.2/../../../../avr/include/util\delay.h **** 
 241:d:\applications\keyboard\avr-gcc-4.7.2-mingw32\bin\../lib/gcc/avr/4.7.2/../../../../avr/include/util\delay.h **** 	#else
 242:d:\applications\keyboard\avr-gcc-4.7.2-mingw32\bin\../lib/gcc/avr/4.7.2/../../../../avr/include/util\delay.h **** 		//round up by default
 243:d:\applications\keyboard\avr-gcc-4.7.2-mingw32\bin\../lib/gcc/avr/4.7.2/../../../../avr/include/util\delay.h **** 		__ticks_dc = (uint32_t)(ceil(fabs(__tmp)));
 244:d:\applications\keyboard\avr-gcc-4.7.2-mingw32\bin\../lib/gcc/avr/4.7.2/../../../../avr/include/util\delay.h **** 	#endif
 245:d:\applications\keyboard\avr-gcc-4.7.2-mingw32\bin\../lib/gcc/avr/4.7.2/../../../../avr/include/util\delay.h **** 
 246:d:\applications\keyboard\avr-gcc-4.7.2-mingw32\bin\../lib/gcc/avr/4.7.2/../../../../avr/include/util\delay.h **** 	__builtin_avr_delay_cycles(__ticks_dc);
  81               		.loc 3 246 0
  82 0024 95ED      		ldi r25,lo8(-43)
  83 0026 9A95      		1: dec r25
  84 0028 01F4      		brne 1b
  85 002a 0000      		nop
  86               	.LBE175:
  87               	.LBE174:
 579:../../tmk_core/protocol/lufa/lufa.c ****         .report_id = REPORT_ID_CONSUMER,
 580:../../tmk_core/protocol/lufa/lufa.c ****         .usage = data
 581:../../tmk_core/protocol/lufa/lufa.c ****     };
 582:../../tmk_core/protocol/lufa/lufa.c ****     Endpoint_SelectEndpoint(EXTRAKEY_IN_EPNUM);
 583:../../tmk_core/protocol/lufa/lufa.c **** 
 584:../../tmk_core/protocol/lufa/lufa.c ****     /* Check if write ready for a polling interval around 10ms */
 585:../../tmk_core/protocol/lufa/lufa.c ****     while (timeout-- && !Endpoint_IsReadWriteAllowed()) _delay_us(40);
  88               		.loc 1 585 0
  89 002c 8823      		tst r24
  90 002e 01F0      		breq .L5
  91               	.LVL6:
  92               	.L4:
  93               	.LBB176:
  94               	.LBB177:
 271:../../tmk_core/protocol/lufa/LUFA-git/LUFA/Drivers/USB/Core/AVR8/../AVR8/Endpoint_AVR8.h **** 				#endif
 272:../../tmk_core/protocol/lufa/LUFA-git/LUFA/Drivers/USB/Core/AVR8/../AVR8/Endpoint_AVR8.h **** 			}
 273:../../tmk_core/protocol/lufa/LUFA-git/LUFA/Drivers/USB/Core/AVR8/../AVR8/Endpoint_AVR8.h **** 
 274:../../tmk_core/protocol/lufa/LUFA-git/LUFA/Drivers/USB/Core/AVR8/../AVR8/Endpoint_AVR8.h **** 			/** Resets the endpoint bank FIFO. This clears all the endpoint banks and resets the USB control
 275:../../tmk_core/protocol/lufa/LUFA-git/LUFA/Drivers/USB/Core/AVR8/../AVR8/Endpoint_AVR8.h **** 			 *  data In and Out pointers to the bank's contents.
 276:../../tmk_core/protocol/lufa/LUFA-git/LUFA/Drivers/USB/Core/AVR8/../AVR8/Endpoint_AVR8.h **** 			 *
 277:../../tmk_core/protocol/lufa/LUFA-git/LUFA/Drivers/USB/Core/AVR8/../AVR8/Endpoint_AVR8.h **** 			 *  \param[in] Address  Endpoint address whose FIFO buffers are to be reset.
 278:../../tmk_core/protocol/lufa/LUFA-git/LUFA/Drivers/USB/Core/AVR8/../AVR8/Endpoint_AVR8.h **** 			 */
 279:../../tmk_core/protocol/lufa/LUFA-git/LUFA/Drivers/USB/Core/AVR8/../AVR8/Endpoint_AVR8.h **** 			static inline void Endpoint_ResetEndpoint(const uint8_t Address) ATTR_ALWAYS_INLINE;
 280:../../tmk_core/protocol/lufa/LUFA-git/LUFA/Drivers/USB/Core/AVR8/../AVR8/Endpoint_AVR8.h **** 			static inline void Endpoint_ResetEndpoint(const uint8_t Address)
 281:../../tmk_core/protocol/lufa/LUFA-git/LUFA/Drivers/USB/Core/AVR8/../AVR8/Endpoint_AVR8.h **** 			{
 282:../../tmk_core/protocol/lufa/LUFA-git/LUFA/Drivers/USB/Core/AVR8/../AVR8/Endpoint_AVR8.h **** 				UERST = (1 << (Address & ENDPOINT_EPNUM_MASK));
 283:../../tmk_core/protocol/lufa/LUFA-git/LUFA/Drivers/USB/Core/AVR8/../AVR8/Endpoint_AVR8.h **** 				UERST = 0;
 284:../../tmk_core/protocol/lufa/LUFA-git/LUFA/Drivers/USB/Core/AVR8/../AVR8/Endpoint_AVR8.h **** 			}
 285:../../tmk_core/protocol/lufa/LUFA-git/LUFA/Drivers/USB/Core/AVR8/../AVR8/Endpoint_AVR8.h **** 
 286:../../tmk_core/protocol/lufa/LUFA-git/LUFA/Drivers/USB/Core/AVR8/../AVR8/Endpoint_AVR8.h **** 			/** Enables the currently selected endpoint so that data can be sent and received through it to
 287:../../tmk_core/protocol/lufa/LUFA-git/LUFA/Drivers/USB/Core/AVR8/../AVR8/Endpoint_AVR8.h **** 			 *  and from a host.
 288:../../tmk_core/protocol/lufa/LUFA-git/LUFA/Drivers/USB/Core/AVR8/../AVR8/Endpoint_AVR8.h **** 			 *
 289:../../tmk_core/protocol/lufa/LUFA-git/LUFA/Drivers/USB/Core/AVR8/../AVR8/Endpoint_AVR8.h **** 			 *  \note Endpoints must first be configured properly via \ref Endpoint_ConfigureEndpoint().
 290:../../tmk_core/protocol/lufa/LUFA-git/LUFA/Drivers/USB/Core/AVR8/../AVR8/Endpoint_AVR8.h **** 			 */
 291:../../tmk_core/protocol/lufa/LUFA-git/LUFA/Drivers/USB/Core/AVR8/../AVR8/Endpoint_AVR8.h **** 			static inline void Endpoint_EnableEndpoint(void) ATTR_ALWAYS_INLINE;
 292:../../tmk_core/protocol/lufa/LUFA-git/LUFA/Drivers/USB/Core/AVR8/../AVR8/Endpoint_AVR8.h **** 			static inline void Endpoint_EnableEndpoint(void)
 293:../../tmk_core/protocol/lufa/LUFA-git/LUFA/Drivers/USB/Core/AVR8/../AVR8/Endpoint_AVR8.h **** 			{
 294:../../tmk_core/protocol/lufa/LUFA-git/LUFA/Drivers/USB/Core/AVR8/../AVR8/Endpoint_AVR8.h **** 				UECONX |= (1 << EPEN);
 295:../../tmk_core/protocol/lufa/LUFA-git/LUFA/Drivers/USB/Core/AVR8/../AVR8/Endpoint_AVR8.h **** 			}
 296:../../tmk_core/protocol/lufa/LUFA-git/LUFA/Drivers/USB/Core/AVR8/../AVR8/Endpoint_AVR8.h **** 
 297:../../tmk_core/protocol/lufa/LUFA-git/LUFA/Drivers/USB/Core/AVR8/../AVR8/Endpoint_AVR8.h **** 			/** Disables the currently selected endpoint so that data cannot be sent and received through it
 298:../../tmk_core/protocol/lufa/LUFA-git/LUFA/Drivers/USB/Core/AVR8/../AVR8/Endpoint_AVR8.h **** 			 *  to and from a host.
 299:../../tmk_core/protocol/lufa/LUFA-git/LUFA/Drivers/USB/Core/AVR8/../AVR8/Endpoint_AVR8.h **** 			 */
 300:../../tmk_core/protocol/lufa/LUFA-git/LUFA/Drivers/USB/Core/AVR8/../AVR8/Endpoint_AVR8.h **** 			static inline void Endpoint_DisableEndpoint(void) ATTR_ALWAYS_INLINE;
 301:../../tmk_core/protocol/lufa/LUFA-git/LUFA/Drivers/USB/Core/AVR8/../AVR8/Endpoint_AVR8.h **** 			static inline void Endpoint_DisableEndpoint(void)
 302:../../tmk_core/protocol/lufa/LUFA-git/LUFA/Drivers/USB/Core/AVR8/../AVR8/Endpoint_AVR8.h **** 			{
 303:../../tmk_core/protocol/lufa/LUFA-git/LUFA/Drivers/USB/Core/AVR8/../AVR8/Endpoint_AVR8.h **** 				UECONX &= ~(1 << EPEN);
 304:../../tmk_core/protocol/lufa/LUFA-git/LUFA/Drivers/USB/Core/AVR8/../AVR8/Endpoint_AVR8.h **** 			}
 305:../../tmk_core/protocol/lufa/LUFA-git/LUFA/Drivers/USB/Core/AVR8/../AVR8/Endpoint_AVR8.h **** 
 306:../../tmk_core/protocol/lufa/LUFA-git/LUFA/Drivers/USB/Core/AVR8/../AVR8/Endpoint_AVR8.h **** 			/** Determines if the currently selected endpoint is enabled, but not necessarily configured.
 307:../../tmk_core/protocol/lufa/LUFA-git/LUFA/Drivers/USB/Core/AVR8/../AVR8/Endpoint_AVR8.h **** 			 *
 308:../../tmk_core/protocol/lufa/LUFA-git/LUFA/Drivers/USB/Core/AVR8/../AVR8/Endpoint_AVR8.h **** 			 * \return Boolean \c true if the currently selected endpoint is enabled, \c false otherwise.
 309:../../tmk_core/protocol/lufa/LUFA-git/LUFA/Drivers/USB/Core/AVR8/../AVR8/Endpoint_AVR8.h **** 			 */
 310:../../tmk_core/protocol/lufa/LUFA-git/LUFA/Drivers/USB/Core/AVR8/../AVR8/Endpoint_AVR8.h **** 			static inline bool Endpoint_IsEnabled(void) ATTR_WARN_UNUSED_RESULT ATTR_ALWAYS_INLINE;
 311:../../tmk_core/protocol/lufa/LUFA-git/LUFA/Drivers/USB/Core/AVR8/../AVR8/Endpoint_AVR8.h **** 			static inline bool Endpoint_IsEnabled(void)
 312:../../tmk_core/protocol/lufa/LUFA-git/LUFA/Drivers/USB/Core/AVR8/../AVR8/Endpoint_AVR8.h **** 			{
 313:../../tmk_core/protocol/lufa/LUFA-git/LUFA/Drivers/USB/Core/AVR8/../AVR8/Endpoint_AVR8.h **** 				return ((UECONX & (1 << EPEN)) ? true : false);
 314:../../tmk_core/protocol/lufa/LUFA-git/LUFA/Drivers/USB/Core/AVR8/../AVR8/Endpoint_AVR8.h **** 			}
 315:../../tmk_core/protocol/lufa/LUFA-git/LUFA/Drivers/USB/Core/AVR8/../AVR8/Endpoint_AVR8.h **** 
 316:../../tmk_core/protocol/lufa/LUFA-git/LUFA/Drivers/USB/Core/AVR8/../AVR8/Endpoint_AVR8.h **** 			/** Retrieves the number of busy banks in the currently selected endpoint, which have been queue
 317:../../tmk_core/protocol/lufa/LUFA-git/LUFA/Drivers/USB/Core/AVR8/../AVR8/Endpoint_AVR8.h **** 			 *  transmission via the \ref Endpoint_ClearIN() command, or are awaiting acknowledgment via the
 318:../../tmk_core/protocol/lufa/LUFA-git/LUFA/Drivers/USB/Core/AVR8/../AVR8/Endpoint_AVR8.h **** 			 *  \ref Endpoint_ClearOUT() command.
 319:../../tmk_core/protocol/lufa/LUFA-git/LUFA/Drivers/USB/Core/AVR8/../AVR8/Endpoint_AVR8.h **** 			 *
 320:../../tmk_core/protocol/lufa/LUFA-git/LUFA/Drivers/USB/Core/AVR8/../AVR8/Endpoint_AVR8.h **** 			 *  \ingroup Group_EndpointPacketManagement_AVR8
 321:../../tmk_core/protocol/lufa/LUFA-git/LUFA/Drivers/USB/Core/AVR8/../AVR8/Endpoint_AVR8.h **** 			 *
 322:../../tmk_core/protocol/lufa/LUFA-git/LUFA/Drivers/USB/Core/AVR8/../AVR8/Endpoint_AVR8.h **** 			 *  \return Total number of busy banks in the selected endpoint.
 323:../../tmk_core/protocol/lufa/LUFA-git/LUFA/Drivers/USB/Core/AVR8/../AVR8/Endpoint_AVR8.h **** 			 */
 324:../../tmk_core/protocol/lufa/LUFA-git/LUFA/Drivers/USB/Core/AVR8/../AVR8/Endpoint_AVR8.h **** 			static inline uint8_t Endpoint_GetBusyBanks(void) ATTR_ALWAYS_INLINE ATTR_WARN_UNUSED_RESULT;
 325:../../tmk_core/protocol/lufa/LUFA-git/LUFA/Drivers/USB/Core/AVR8/../AVR8/Endpoint_AVR8.h **** 			static inline uint8_t Endpoint_GetBusyBanks(void)
 326:../../tmk_core/protocol/lufa/LUFA-git/LUFA/Drivers/USB/Core/AVR8/../AVR8/Endpoint_AVR8.h **** 			{
 327:../../tmk_core/protocol/lufa/LUFA-git/LUFA/Drivers/USB/Core/AVR8/../AVR8/Endpoint_AVR8.h **** 				return (UESTA0X & (0x03 << NBUSYBK0));
 328:../../tmk_core/protocol/lufa/LUFA-git/LUFA/Drivers/USB/Core/AVR8/../AVR8/Endpoint_AVR8.h **** 			}
 329:../../tmk_core/protocol/lufa/LUFA-git/LUFA/Drivers/USB/Core/AVR8/../AVR8/Endpoint_AVR8.h **** 
 330:../../tmk_core/protocol/lufa/LUFA-git/LUFA/Drivers/USB/Core/AVR8/../AVR8/Endpoint_AVR8.h **** 			/** Aborts all pending IN transactions on the currently selected endpoint, once the bank
 331:../../tmk_core/protocol/lufa/LUFA-git/LUFA/Drivers/USB/Core/AVR8/../AVR8/Endpoint_AVR8.h **** 			 *  has been queued for transmission to the host via \ref Endpoint_ClearIN(). This function
 332:../../tmk_core/protocol/lufa/LUFA-git/LUFA/Drivers/USB/Core/AVR8/../AVR8/Endpoint_AVR8.h **** 			 *  will terminate all queued transactions, resetting the endpoint banks ready for a new
 333:../../tmk_core/protocol/lufa/LUFA-git/LUFA/Drivers/USB/Core/AVR8/../AVR8/Endpoint_AVR8.h **** 			 *  packet.
 334:../../tmk_core/protocol/lufa/LUFA-git/LUFA/Drivers/USB/Core/AVR8/../AVR8/Endpoint_AVR8.h **** 			 *
 335:../../tmk_core/protocol/lufa/LUFA-git/LUFA/Drivers/USB/Core/AVR8/../AVR8/Endpoint_AVR8.h **** 			 *  \ingroup Group_EndpointPacketManagement_AVR8
 336:../../tmk_core/protocol/lufa/LUFA-git/LUFA/Drivers/USB/Core/AVR8/../AVR8/Endpoint_AVR8.h **** 			 */
 337:../../tmk_core/protocol/lufa/LUFA-git/LUFA/Drivers/USB/Core/AVR8/../AVR8/Endpoint_AVR8.h **** 			static inline void Endpoint_AbortPendingIN(void)
 338:../../tmk_core/protocol/lufa/LUFA-git/LUFA/Drivers/USB/Core/AVR8/../AVR8/Endpoint_AVR8.h **** 			{
 339:../../tmk_core/protocol/lufa/LUFA-git/LUFA/Drivers/USB/Core/AVR8/../AVR8/Endpoint_AVR8.h **** 				while (Endpoint_GetBusyBanks() != 0)
 340:../../tmk_core/protocol/lufa/LUFA-git/LUFA/Drivers/USB/Core/AVR8/../AVR8/Endpoint_AVR8.h **** 				{
 341:../../tmk_core/protocol/lufa/LUFA-git/LUFA/Drivers/USB/Core/AVR8/../AVR8/Endpoint_AVR8.h **** 					UEINTX |= (1 << RXOUTI);
 342:../../tmk_core/protocol/lufa/LUFA-git/LUFA/Drivers/USB/Core/AVR8/../AVR8/Endpoint_AVR8.h **** 					while (UEINTX & (1 << RXOUTI));
 343:../../tmk_core/protocol/lufa/LUFA-git/LUFA/Drivers/USB/Core/AVR8/../AVR8/Endpoint_AVR8.h **** 				}
 344:../../tmk_core/protocol/lufa/LUFA-git/LUFA/Drivers/USB/Core/AVR8/../AVR8/Endpoint_AVR8.h **** 			}
 345:../../tmk_core/protocol/lufa/LUFA-git/LUFA/Drivers/USB/Core/AVR8/../AVR8/Endpoint_AVR8.h **** 
 346:../../tmk_core/protocol/lufa/LUFA-git/LUFA/Drivers/USB/Core/AVR8/../AVR8/Endpoint_AVR8.h **** 			/** Determines if the currently selected endpoint may be read from (if data is waiting in the en
 347:../../tmk_core/protocol/lufa/LUFA-git/LUFA/Drivers/USB/Core/AVR8/../AVR8/Endpoint_AVR8.h **** 			 *  bank and the endpoint is an OUT direction, or if the bank is not yet full if the endpoint is
 348:../../tmk_core/protocol/lufa/LUFA-git/LUFA/Drivers/USB/Core/AVR8/../AVR8/Endpoint_AVR8.h **** 			 *  direction). This function will return false if an error has occurred in the endpoint, if the
 349:../../tmk_core/protocol/lufa/LUFA-git/LUFA/Drivers/USB/Core/AVR8/../AVR8/Endpoint_AVR8.h **** 			 *  is an OUT direction and no packet (or an empty packet) has been received, or if the endpoint
 350:../../tmk_core/protocol/lufa/LUFA-git/LUFA/Drivers/USB/Core/AVR8/../AVR8/Endpoint_AVR8.h **** 			 *  direction and the endpoint bank is full.
 351:../../tmk_core/protocol/lufa/LUFA-git/LUFA/Drivers/USB/Core/AVR8/../AVR8/Endpoint_AVR8.h **** 			 *
 352:../../tmk_core/protocol/lufa/LUFA-git/LUFA/Drivers/USB/Core/AVR8/../AVR8/Endpoint_AVR8.h **** 			 *  \ingroup Group_EndpointPacketManagement_AVR8
 353:../../tmk_core/protocol/lufa/LUFA-git/LUFA/Drivers/USB/Core/AVR8/../AVR8/Endpoint_AVR8.h **** 			 *
 354:../../tmk_core/protocol/lufa/LUFA-git/LUFA/Drivers/USB/Core/AVR8/../AVR8/Endpoint_AVR8.h **** 			 *  \return Boolean \c true if the currently selected endpoint may be read from or written to, d
 355:../../tmk_core/protocol/lufa/LUFA-git/LUFA/Drivers/USB/Core/AVR8/../AVR8/Endpoint_AVR8.h **** 			 *          on its direction.
 356:../../tmk_core/protocol/lufa/LUFA-git/LUFA/Drivers/USB/Core/AVR8/../AVR8/Endpoint_AVR8.h **** 			 */
 357:../../tmk_core/protocol/lufa/LUFA-git/LUFA/Drivers/USB/Core/AVR8/../AVR8/Endpoint_AVR8.h **** 			static inline bool Endpoint_IsReadWriteAllowed(void) ATTR_WARN_UNUSED_RESULT ATTR_ALWAYS_INLINE;
 358:../../tmk_core/protocol/lufa/LUFA-git/LUFA/Drivers/USB/Core/AVR8/../AVR8/Endpoint_AVR8.h **** 			static inline bool Endpoint_IsReadWriteAllowed(void)
 359:../../tmk_core/protocol/lufa/LUFA-git/LUFA/Drivers/USB/Core/AVR8/../AVR8/Endpoint_AVR8.h **** 			{
 360:../../tmk_core/protocol/lufa/LUFA-git/LUFA/Drivers/USB/Core/AVR8/../AVR8/Endpoint_AVR8.h **** 				return ((UEINTX & (1 << RWAL)) ? true : false);
  95               		.loc 2 360 0
  96 0030 9091 E800 		lds r25,232
  97 0034 8150      		subi r24,lo8(-(-1))
  98               	.LBE177:
  99               	.LBE176:
 100               		.loc 1 585 0
 101 0036 95FF      		sbrs r25,5
 102 0038 00C0      		rjmp .L6
 103               	.L5:
 104               	.LBB178:
 105               	.LBB179:
 106               		.loc 2 360 0
 107 003a 8091 E800 		lds r24,232
 108               	.LBE179:
 109               	.LBE178:
 586:../../tmk_core/protocol/lufa/lufa.c ****     if (!Endpoint_IsReadWriteAllowed()) return;
 110               		.loc 1 586 0
 111 003e 85FF      		sbrs r24,5
 112 0040 00C0      		rjmp .L2
 587:../../tmk_core/protocol/lufa/lufa.c **** 
 588:../../tmk_core/protocol/lufa/lufa.c ****     Endpoint_Write_Stream_LE(&r, sizeof(report_extra_t), NULL);
 113               		.loc 1 588 0
 114 0042 40E0      		ldi r20,0
 115 0044 50E0      		ldi r21,0
 116 0046 63E0      		ldi r22,lo8(3)
 117 0048 70E0      		ldi r23,0
 118 004a CE01      		movw r24,r28
 119 004c 0196      		adiw r24,1
 120 004e 0E94 0000 		call Endpoint_Write_Stream_LE
 121               	.LVL7:
 122               	.LBB180:
 123               	.LBB181:
 361:../../tmk_core/protocol/lufa/LUFA-git/LUFA/Drivers/USB/Core/AVR8/../AVR8/Endpoint_AVR8.h **** 			}
 362:../../tmk_core/protocol/lufa/LUFA-git/LUFA/Drivers/USB/Core/AVR8/../AVR8/Endpoint_AVR8.h **** 
 363:../../tmk_core/protocol/lufa/LUFA-git/LUFA/Drivers/USB/Core/AVR8/../AVR8/Endpoint_AVR8.h **** 			/** Determines if the currently selected endpoint is configured.
 364:../../tmk_core/protocol/lufa/LUFA-git/LUFA/Drivers/USB/Core/AVR8/../AVR8/Endpoint_AVR8.h **** 			 *
 365:../../tmk_core/protocol/lufa/LUFA-git/LUFA/Drivers/USB/Core/AVR8/../AVR8/Endpoint_AVR8.h **** 			 *  \return Boolean \c true if the currently selected endpoint has been configured, \c false oth
 366:../../tmk_core/protocol/lufa/LUFA-git/LUFA/Drivers/USB/Core/AVR8/../AVR8/Endpoint_AVR8.h **** 			 */
 367:../../tmk_core/protocol/lufa/LUFA-git/LUFA/Drivers/USB/Core/AVR8/../AVR8/Endpoint_AVR8.h **** 			static inline bool Endpoint_IsConfigured(void) ATTR_WARN_UNUSED_RESULT ATTR_ALWAYS_INLINE;
 368:../../tmk_core/protocol/lufa/LUFA-git/LUFA/Drivers/USB/Core/AVR8/../AVR8/Endpoint_AVR8.h **** 			static inline bool Endpoint_IsConfigured(void)
 369:../../tmk_core/protocol/lufa/LUFA-git/LUFA/Drivers/USB/Core/AVR8/../AVR8/Endpoint_AVR8.h **** 			{
 370:../../tmk_core/protocol/lufa/LUFA-git/LUFA/Drivers/USB/Core/AVR8/../AVR8/Endpoint_AVR8.h **** 				return ((UESTA0X & (1 << CFGOK)) ? true : false);
 371:../../tmk_core/protocol/lufa/LUFA-git/LUFA/Drivers/USB/Core/AVR8/../AVR8/Endpoint_AVR8.h **** 			}
 372:../../tmk_core/protocol/lufa/LUFA-git/LUFA/Drivers/USB/Core/AVR8/../AVR8/Endpoint_AVR8.h **** 
 373:../../tmk_core/protocol/lufa/LUFA-git/LUFA/Drivers/USB/Core/AVR8/../AVR8/Endpoint_AVR8.h **** 			/** Returns a mask indicating which INTERRUPT type endpoints have interrupted - i.e. their
 374:../../tmk_core/protocol/lufa/LUFA-git/LUFA/Drivers/USB/Core/AVR8/../AVR8/Endpoint_AVR8.h **** 			 *  interrupt duration has elapsed. Which endpoints have interrupted can be determined by
 375:../../tmk_core/protocol/lufa/LUFA-git/LUFA/Drivers/USB/Core/AVR8/../AVR8/Endpoint_AVR8.h **** 			 *  masking the return value against <tt>(1 << <i>{Endpoint Number}</i>)</tt>.
 376:../../tmk_core/protocol/lufa/LUFA-git/LUFA/Drivers/USB/Core/AVR8/../AVR8/Endpoint_AVR8.h **** 			 *
 377:../../tmk_core/protocol/lufa/LUFA-git/LUFA/Drivers/USB/Core/AVR8/../AVR8/Endpoint_AVR8.h **** 			 *  \return Mask whose bits indicate which endpoints have interrupted.
 378:../../tmk_core/protocol/lufa/LUFA-git/LUFA/Drivers/USB/Core/AVR8/../AVR8/Endpoint_AVR8.h **** 			 */
 379:../../tmk_core/protocol/lufa/LUFA-git/LUFA/Drivers/USB/Core/AVR8/../AVR8/Endpoint_AVR8.h **** 			static inline uint8_t Endpoint_GetEndpointInterrupts(void) ATTR_WARN_UNUSED_RESULT ATTR_ALWAYS_I
 380:../../tmk_core/protocol/lufa/LUFA-git/LUFA/Drivers/USB/Core/AVR8/../AVR8/Endpoint_AVR8.h **** 			static inline uint8_t Endpoint_GetEndpointInterrupts(void)
 381:../../tmk_core/protocol/lufa/LUFA-git/LUFA/Drivers/USB/Core/AVR8/../AVR8/Endpoint_AVR8.h **** 			{
 382:../../tmk_core/protocol/lufa/LUFA-git/LUFA/Drivers/USB/Core/AVR8/../AVR8/Endpoint_AVR8.h **** 				return UEINT;
 383:../../tmk_core/protocol/lufa/LUFA-git/LUFA/Drivers/USB/Core/AVR8/../AVR8/Endpoint_AVR8.h **** 			}
 384:../../tmk_core/protocol/lufa/LUFA-git/LUFA/Drivers/USB/Core/AVR8/../AVR8/Endpoint_AVR8.h **** 
 385:../../tmk_core/protocol/lufa/LUFA-git/LUFA/Drivers/USB/Core/AVR8/../AVR8/Endpoint_AVR8.h **** 			/** Determines if the specified endpoint number has interrupted (valid only for INTERRUPT type
 386:../../tmk_core/protocol/lufa/LUFA-git/LUFA/Drivers/USB/Core/AVR8/../AVR8/Endpoint_AVR8.h **** 			 *  endpoints).
 387:../../tmk_core/protocol/lufa/LUFA-git/LUFA/Drivers/USB/Core/AVR8/../AVR8/Endpoint_AVR8.h **** 			 *
 388:../../tmk_core/protocol/lufa/LUFA-git/LUFA/Drivers/USB/Core/AVR8/../AVR8/Endpoint_AVR8.h **** 			 *  \param[in] Address  Address of the endpoint whose interrupt flag should be tested.
 389:../../tmk_core/protocol/lufa/LUFA-git/LUFA/Drivers/USB/Core/AVR8/../AVR8/Endpoint_AVR8.h **** 			 *
 390:../../tmk_core/protocol/lufa/LUFA-git/LUFA/Drivers/USB/Core/AVR8/../AVR8/Endpoint_AVR8.h **** 			 *  \return Boolean \c true if the specified endpoint has interrupted, \c false otherwise.
 391:../../tmk_core/protocol/lufa/LUFA-git/LUFA/Drivers/USB/Core/AVR8/../AVR8/Endpoint_AVR8.h **** 			 */
 392:../../tmk_core/protocol/lufa/LUFA-git/LUFA/Drivers/USB/Core/AVR8/../AVR8/Endpoint_AVR8.h **** 			static inline bool Endpoint_HasEndpointInterrupted(const uint8_t Address) ATTR_WARN_UNUSED_RESUL
 393:../../tmk_core/protocol/lufa/LUFA-git/LUFA/Drivers/USB/Core/AVR8/../AVR8/Endpoint_AVR8.h **** 			static inline bool Endpoint_HasEndpointInterrupted(const uint8_t Address)
 394:../../tmk_core/protocol/lufa/LUFA-git/LUFA/Drivers/USB/Core/AVR8/../AVR8/Endpoint_AVR8.h **** 			{
 395:../../tmk_core/protocol/lufa/LUFA-git/LUFA/Drivers/USB/Core/AVR8/../AVR8/Endpoint_AVR8.h **** 				return ((Endpoint_GetEndpointInterrupts() & (1 << (Address & ENDPOINT_EPNUM_MASK))) ? true : fa
 396:../../tmk_core/protocol/lufa/LUFA-git/LUFA/Drivers/USB/Core/AVR8/../AVR8/Endpoint_AVR8.h **** 			}
 397:../../tmk_core/protocol/lufa/LUFA-git/LUFA/Drivers/USB/Core/AVR8/../AVR8/Endpoint_AVR8.h **** 
 398:../../tmk_core/protocol/lufa/LUFA-git/LUFA/Drivers/USB/Core/AVR8/../AVR8/Endpoint_AVR8.h **** 			/** Determines if the selected IN endpoint is ready for a new packet to be sent to the host.
 399:../../tmk_core/protocol/lufa/LUFA-git/LUFA/Drivers/USB/Core/AVR8/../AVR8/Endpoint_AVR8.h **** 			 *
 400:../../tmk_core/protocol/lufa/LUFA-git/LUFA/Drivers/USB/Core/AVR8/../AVR8/Endpoint_AVR8.h **** 			 *  \ingroup Group_EndpointPacketManagement_AVR8
 401:../../tmk_core/protocol/lufa/LUFA-git/LUFA/Drivers/USB/Core/AVR8/../AVR8/Endpoint_AVR8.h **** 			 *
 402:../../tmk_core/protocol/lufa/LUFA-git/LUFA/Drivers/USB/Core/AVR8/../AVR8/Endpoint_AVR8.h **** 			 *  \return Boolean \c true if the current endpoint is ready for an IN packet, \c false otherwis
 403:../../tmk_core/protocol/lufa/LUFA-git/LUFA/Drivers/USB/Core/AVR8/../AVR8/Endpoint_AVR8.h **** 			 */
 404:../../tmk_core/protocol/lufa/LUFA-git/LUFA/Drivers/USB/Core/AVR8/../AVR8/Endpoint_AVR8.h **** 			static inline bool Endpoint_IsINReady(void) ATTR_WARN_UNUSED_RESULT ATTR_ALWAYS_INLINE;
 405:../../tmk_core/protocol/lufa/LUFA-git/LUFA/Drivers/USB/Core/AVR8/../AVR8/Endpoint_AVR8.h **** 			static inline bool Endpoint_IsINReady(void)
 406:../../tmk_core/protocol/lufa/LUFA-git/LUFA/Drivers/USB/Core/AVR8/../AVR8/Endpoint_AVR8.h **** 			{
 407:../../tmk_core/protocol/lufa/LUFA-git/LUFA/Drivers/USB/Core/AVR8/../AVR8/Endpoint_AVR8.h **** 				return ((UEINTX & (1 << TXINI)) ? true : false);
 408:../../tmk_core/protocol/lufa/LUFA-git/LUFA/Drivers/USB/Core/AVR8/../AVR8/Endpoint_AVR8.h **** 			}
 409:../../tmk_core/protocol/lufa/LUFA-git/LUFA/Drivers/USB/Core/AVR8/../AVR8/Endpoint_AVR8.h **** 
 410:../../tmk_core/protocol/lufa/LUFA-git/LUFA/Drivers/USB/Core/AVR8/../AVR8/Endpoint_AVR8.h **** 			/** Determines if the selected OUT endpoint has received new packet from the host.
 411:../../tmk_core/protocol/lufa/LUFA-git/LUFA/Drivers/USB/Core/AVR8/../AVR8/Endpoint_AVR8.h **** 			 *
 412:../../tmk_core/protocol/lufa/LUFA-git/LUFA/Drivers/USB/Core/AVR8/../AVR8/Endpoint_AVR8.h **** 			 *  \ingroup Group_EndpointPacketManagement_AVR8
 413:../../tmk_core/protocol/lufa/LUFA-git/LUFA/Drivers/USB/Core/AVR8/../AVR8/Endpoint_AVR8.h **** 			 *
 414:../../tmk_core/protocol/lufa/LUFA-git/LUFA/Drivers/USB/Core/AVR8/../AVR8/Endpoint_AVR8.h **** 			 *  \return Boolean \c true if current endpoint is has received an OUT packet, \c false otherwis
 415:../../tmk_core/protocol/lufa/LUFA-git/LUFA/Drivers/USB/Core/AVR8/../AVR8/Endpoint_AVR8.h **** 			 */
 416:../../tmk_core/protocol/lufa/LUFA-git/LUFA/Drivers/USB/Core/AVR8/../AVR8/Endpoint_AVR8.h **** 			static inline bool Endpoint_IsOUTReceived(void) ATTR_WARN_UNUSED_RESULT ATTR_ALWAYS_INLINE;
 417:../../tmk_core/protocol/lufa/LUFA-git/LUFA/Drivers/USB/Core/AVR8/../AVR8/Endpoint_AVR8.h **** 			static inline bool Endpoint_IsOUTReceived(void)
 418:../../tmk_core/protocol/lufa/LUFA-git/LUFA/Drivers/USB/Core/AVR8/../AVR8/Endpoint_AVR8.h **** 			{
 419:../../tmk_core/protocol/lufa/LUFA-git/LUFA/Drivers/USB/Core/AVR8/../AVR8/Endpoint_AVR8.h **** 				return ((UEINTX & (1 << RXOUTI)) ? true : false);
 420:../../tmk_core/protocol/lufa/LUFA-git/LUFA/Drivers/USB/Core/AVR8/../AVR8/Endpoint_AVR8.h **** 			}
 421:../../tmk_core/protocol/lufa/LUFA-git/LUFA/Drivers/USB/Core/AVR8/../AVR8/Endpoint_AVR8.h **** 
 422:../../tmk_core/protocol/lufa/LUFA-git/LUFA/Drivers/USB/Core/AVR8/../AVR8/Endpoint_AVR8.h **** 			/** Determines if the current CONTROL type endpoint has received a SETUP packet.
 423:../../tmk_core/protocol/lufa/LUFA-git/LUFA/Drivers/USB/Core/AVR8/../AVR8/Endpoint_AVR8.h **** 			 *
 424:../../tmk_core/protocol/lufa/LUFA-git/LUFA/Drivers/USB/Core/AVR8/../AVR8/Endpoint_AVR8.h **** 			 *  \ingroup Group_EndpointPacketManagement_AVR8
 425:../../tmk_core/protocol/lufa/LUFA-git/LUFA/Drivers/USB/Core/AVR8/../AVR8/Endpoint_AVR8.h **** 			 *
 426:../../tmk_core/protocol/lufa/LUFA-git/LUFA/Drivers/USB/Core/AVR8/../AVR8/Endpoint_AVR8.h **** 			 *  \return Boolean \c true if the selected endpoint has received a SETUP packet, \c false other
 427:../../tmk_core/protocol/lufa/LUFA-git/LUFA/Drivers/USB/Core/AVR8/../AVR8/Endpoint_AVR8.h **** 			 */
 428:../../tmk_core/protocol/lufa/LUFA-git/LUFA/Drivers/USB/Core/AVR8/../AVR8/Endpoint_AVR8.h **** 			static inline bool Endpoint_IsSETUPReceived(void) ATTR_WARN_UNUSED_RESULT ATTR_ALWAYS_INLINE;
 429:../../tmk_core/protocol/lufa/LUFA-git/LUFA/Drivers/USB/Core/AVR8/../AVR8/Endpoint_AVR8.h **** 			static inline bool Endpoint_IsSETUPReceived(void)
 430:../../tmk_core/protocol/lufa/LUFA-git/LUFA/Drivers/USB/Core/AVR8/../AVR8/Endpoint_AVR8.h **** 			{
 431:../../tmk_core/protocol/lufa/LUFA-git/LUFA/Drivers/USB/Core/AVR8/../AVR8/Endpoint_AVR8.h **** 				return ((UEINTX & (1 << RXSTPI)) ? true : false);
 432:../../tmk_core/protocol/lufa/LUFA-git/LUFA/Drivers/USB/Core/AVR8/../AVR8/Endpoint_AVR8.h **** 			}
 433:../../tmk_core/protocol/lufa/LUFA-git/LUFA/Drivers/USB/Core/AVR8/../AVR8/Endpoint_AVR8.h **** 
 434:../../tmk_core/protocol/lufa/LUFA-git/LUFA/Drivers/USB/Core/AVR8/../AVR8/Endpoint_AVR8.h **** 			/** Clears a received SETUP packet on the currently selected CONTROL type endpoint, freeing up t
 435:../../tmk_core/protocol/lufa/LUFA-git/LUFA/Drivers/USB/Core/AVR8/../AVR8/Endpoint_AVR8.h **** 			 *  endpoint for the next packet.
 436:../../tmk_core/protocol/lufa/LUFA-git/LUFA/Drivers/USB/Core/AVR8/../AVR8/Endpoint_AVR8.h **** 			 *
 437:../../tmk_core/protocol/lufa/LUFA-git/LUFA/Drivers/USB/Core/AVR8/../AVR8/Endpoint_AVR8.h **** 			 *  \ingroup Group_EndpointPacketManagement_AVR8
 438:../../tmk_core/protocol/lufa/LUFA-git/LUFA/Drivers/USB/Core/AVR8/../AVR8/Endpoint_AVR8.h **** 			 *
 439:../../tmk_core/protocol/lufa/LUFA-git/LUFA/Drivers/USB/Core/AVR8/../AVR8/Endpoint_AVR8.h **** 			 *  \note This is not applicable for non CONTROL type endpoints.
 440:../../tmk_core/protocol/lufa/LUFA-git/LUFA/Drivers/USB/Core/AVR8/../AVR8/Endpoint_AVR8.h **** 			 */
 441:../../tmk_core/protocol/lufa/LUFA-git/LUFA/Drivers/USB/Core/AVR8/../AVR8/Endpoint_AVR8.h **** 			static inline void Endpoint_ClearSETUP(void) ATTR_ALWAYS_INLINE;
 442:../../tmk_core/protocol/lufa/LUFA-git/LUFA/Drivers/USB/Core/AVR8/../AVR8/Endpoint_AVR8.h **** 			static inline void Endpoint_ClearSETUP(void)
 443:../../tmk_core/protocol/lufa/LUFA-git/LUFA/Drivers/USB/Core/AVR8/../AVR8/Endpoint_AVR8.h **** 			{
 444:../../tmk_core/protocol/lufa/LUFA-git/LUFA/Drivers/USB/Core/AVR8/../AVR8/Endpoint_AVR8.h **** 				UEINTX &= ~(1 << RXSTPI);
 445:../../tmk_core/protocol/lufa/LUFA-git/LUFA/Drivers/USB/Core/AVR8/../AVR8/Endpoint_AVR8.h **** 			}
 446:../../tmk_core/protocol/lufa/LUFA-git/LUFA/Drivers/USB/Core/AVR8/../AVR8/Endpoint_AVR8.h **** 
 447:../../tmk_core/protocol/lufa/LUFA-git/LUFA/Drivers/USB/Core/AVR8/../AVR8/Endpoint_AVR8.h **** 			/** Sends an IN packet to the host on the currently selected endpoint, freeing up the endpoint f
 448:../../tmk_core/protocol/lufa/LUFA-git/LUFA/Drivers/USB/Core/AVR8/../AVR8/Endpoint_AVR8.h **** 			 *  next packet and switching to the alternative endpoint bank if double banked.
 449:../../tmk_core/protocol/lufa/LUFA-git/LUFA/Drivers/USB/Core/AVR8/../AVR8/Endpoint_AVR8.h **** 			 *
 450:../../tmk_core/protocol/lufa/LUFA-git/LUFA/Drivers/USB/Core/AVR8/../AVR8/Endpoint_AVR8.h **** 			 *  \ingroup Group_EndpointPacketManagement_AVR8
 451:../../tmk_core/protocol/lufa/LUFA-git/LUFA/Drivers/USB/Core/AVR8/../AVR8/Endpoint_AVR8.h **** 			 */
 452:../../tmk_core/protocol/lufa/LUFA-git/LUFA/Drivers/USB/Core/AVR8/../AVR8/Endpoint_AVR8.h **** 			static inline void Endpoint_ClearIN(void) ATTR_ALWAYS_INLINE;
 453:../../tmk_core/protocol/lufa/LUFA-git/LUFA/Drivers/USB/Core/AVR8/../AVR8/Endpoint_AVR8.h **** 			static inline void Endpoint_ClearIN(void)
 454:../../tmk_core/protocol/lufa/LUFA-git/LUFA/Drivers/USB/Core/AVR8/../AVR8/Endpoint_AVR8.h **** 			{
 455:../../tmk_core/protocol/lufa/LUFA-git/LUFA/Drivers/USB/Core/AVR8/../AVR8/Endpoint_AVR8.h **** 				#if !defined(CONTROL_ONLY_DEVICE)
 456:../../tmk_core/protocol/lufa/LUFA-git/LUFA/Drivers/USB/Core/AVR8/../AVR8/Endpoint_AVR8.h **** 					UEINTX &= ~((1 << TXINI) | (1 << FIFOCON));
 124               		.loc 2 456 0
 125 0052 8091 E800 		lds r24,232
 126 0056 8E77      		andi r24,lo8(126)
 127 0058 8093 E800 		sts 232,r24
 128               	.LVL8:
 129               	.L2:
 130               	/* epilogue start */
 131               	.LBE181:
 132               	.LBE180:
 589:../../tmk_core/protocol/lufa/lufa.c ****     Endpoint_ClearIN();
 590:../../tmk_core/protocol/lufa/lufa.c **** }
 133               		.loc 1 590 0
 134 005c 0F90      		pop __tmp_reg__
 135 005e 0F90      		pop __tmp_reg__
 136 0060 0F90      		pop __tmp_reg__
 137 0062 DF91      		pop r29
 138 0064 CF91      		pop r28
 139 0066 0895      		ret
 140               		.cfi_endproc
 141               	.LFE117:
 143               		.section	.text.send_system,"ax",@progbits
 145               	send_system:
 146               	.LFB116:
 534:../../tmk_core/protocol/lufa/lufa.c **** {
 147               		.loc 1 534 0
 148               		.cfi_startproc
 149               	.LVL9:
 150 0000 CF93      		push r28
 151               	.LCFI4:
 152               		.cfi_def_cfa_offset 3
 153               		.cfi_offset 28, -2
 154 0002 DF93      		push r29
 155               	.LCFI5:
 156               		.cfi_def_cfa_offset 4
 157               		.cfi_offset 29, -3
 158 0004 00D0      		rcall .
 159 0006 1F92      		push __zero_reg__
 160               	.LCFI6:
 161               		.cfi_def_cfa_offset 7
 162 0008 CDB7      		in r28,__SP_L__
 163 000a DEB7      		in r29,__SP_H__
 164               	.LCFI7:
 165               		.cfi_def_cfa_register 28
 166               	/* prologue: function */
 167               	/* frame size = 3 */
 168               	/* stack size = 5 */
 169               	.L__stack_usage = 5
 170               	.LVL10:
 537:../../tmk_core/protocol/lufa/lufa.c ****     if (USB_DeviceState != DEVICE_STATE_Configured)
 171               		.loc 1 537 0
 172 000c 2091 0000 		lds r18,USB_DeviceState
 173 0010 2430      		cpi r18,lo8(4)
 174 0012 01F4      		brne .L14
 540:../../tmk_core/protocol/lufa/lufa.c ****     report_extra_t r = {
 175               		.loc 1 540 0
 176 0014 22E0      		ldi r18,lo8(2)
 177 0016 2983      		std Y+1,r18
 178 0018 9B83      		std Y+3,r25
 179 001a 8A83      		std Y+2,r24
 180               	.LVL11:
 181               	.LBB182:
 182               	.LBB183:
 270:../../tmk_core/protocol/lufa/LUFA-git/LUFA/Drivers/USB/Core/AVR8/../AVR8/Endpoint_AVR8.h **** 					UENUM = (Address & ENDPOINT_EPNUM_MASK);
 183               		.loc 2 270 0
 184 001c 83E0      		ldi r24,lo8(3)
 185               	.LVL12:
 186 001e 8093 E900 		sts 233,r24
 187               	.LVL13:
 188 0022 8FEF      		ldi r24,lo8(-1)
 189 0024 00C0      		rjmp .L16
 190               	.L18:
 191               	.LVL14:
 192               	.LBE183:
 193               	.LBE182:
 194               	.LBB184:
 195               	.LBB185:
 196               		.loc 3 246 0
 197 0026 95ED      		ldi r25,lo8(-43)
 198 0028 9A95      		1: dec r25
 199 002a 01F4      		brne 1b
 200 002c 0000      		nop
 201               	.LBE185:
 202               	.LBE184:
 547:../../tmk_core/protocol/lufa/lufa.c ****     while (timeout-- && !Endpoint_IsReadWriteAllowed()) _delay_us(40);
 203               		.loc 1 547 0
 204 002e 8823      		tst r24
 205 0030 01F0      		breq .L17
 206               	.LVL15:
 207               	.L16:
 208               	.LBB186:
 209               	.LBB187:
 360:../../tmk_core/protocol/lufa/LUFA-git/LUFA/Drivers/USB/Core/AVR8/../AVR8/Endpoint_AVR8.h **** 				return ((UEINTX & (1 << RWAL)) ? true : false);
 210               		.loc 2 360 0
 211 0032 9091 E800 		lds r25,232
 212 0036 8150      		subi r24,lo8(-(-1))
 213               	.LBE187:
 214               	.LBE186:
 547:../../tmk_core/protocol/lufa/lufa.c ****     while (timeout-- && !Endpoint_IsReadWriteAllowed()) _delay_us(40);
 215               		.loc 1 547 0
 216 0038 95FF      		sbrs r25,5
 217 003a 00C0      		rjmp .L18
 218               	.L17:
 219               	.LBB188:
 220               	.LBB189:
 360:../../tmk_core/protocol/lufa/LUFA-git/LUFA/Drivers/USB/Core/AVR8/../AVR8/Endpoint_AVR8.h **** 				return ((UEINTX & (1 << RWAL)) ? true : false);
 221               		.loc 2 360 0
 222 003c 8091 E800 		lds r24,232
 223               	.LBE189:
 224               	.LBE188:
 548:../../tmk_core/protocol/lufa/lufa.c ****     if (!Endpoint_IsReadWriteAllowed()) return;
 225               		.loc 1 548 0
 226 0040 85FF      		sbrs r24,5
 227 0042 00C0      		rjmp .L14
 550:../../tmk_core/protocol/lufa/lufa.c ****     Endpoint_Write_Stream_LE(&r, sizeof(report_extra_t), NULL);
 228               		.loc 1 550 0
 229 0044 40E0      		ldi r20,0
 230 0046 50E0      		ldi r21,0
 231 0048 63E0      		ldi r22,lo8(3)
 232 004a 70E0      		ldi r23,0
 233 004c CE01      		movw r24,r28
 234 004e 0196      		adiw r24,1
 235 0050 0E94 0000 		call Endpoint_Write_Stream_LE
 236               	.LVL16:
 237               	.LBB190:
 238               	.LBB191:
 239               		.loc 2 456 0
 240 0054 8091 E800 		lds r24,232
 241 0058 8E77      		andi r24,lo8(126)
 242 005a 8093 E800 		sts 232,r24
 243               	.LVL17:
 244               	.L14:
 245               	/* epilogue start */
 246               	.LBE191:
 247               	.LBE190:
 552:../../tmk_core/protocol/lufa/lufa.c **** }
 248               		.loc 1 552 0
 249 005e 0F90      		pop __tmp_reg__
 250 0060 0F90      		pop __tmp_reg__
 251 0062 0F90      		pop __tmp_reg__
 252 0064 DF91      		pop r29
 253 0066 CF91      		pop r28
 254 0068 0895      		ret
 255               		.cfi_endproc
 256               	.LFE116:
 258               		.section	.text.send_mouse,"ax",@progbits
 260               	send_mouse:
 261               	.LFB115:
 498:../../tmk_core/protocol/lufa/lufa.c **** {
 262               		.loc 1 498 0
 263               		.cfi_startproc
 264               	.LVL18:
 265               	/* prologue: function */
 266               	/* frame size = 0 */
 267               	/* stack size = 0 */
 268               	.L__stack_usage = 0
 515:../../tmk_core/protocol/lufa/lufa.c ****     if (USB_DeviceState != DEVICE_STATE_Configured)
 269               		.loc 1 515 0
 270 0000 2091 0000 		lds r18,USB_DeviceState
 271 0004 2430      		cpi r18,lo8(4)
 272 0006 01F4      		brne .L26
 273               	.LVL19:
 274               	.LBB192:
 275               	.LBB193:
 270:../../tmk_core/protocol/lufa/LUFA-git/LUFA/Drivers/USB/Core/AVR8/../AVR8/Endpoint_AVR8.h **** 					UENUM = (Address & ENDPOINT_EPNUM_MASK);
 276               		.loc 2 270 0
 277 0008 22E0      		ldi r18,lo8(2)
 278 000a 2093 E900 		sts 233,r18
 279               	.LVL20:
 280 000e 2FEF      		ldi r18,lo8(-1)
 281 0010 00C0      		rjmp .L29
 282               	.L31:
 283               	.LVL21:
 284               	.LBE193:
 285               	.LBE192:
 286               	.LBB194:
 287               	.LBB195:
 288               		.loc 3 246 0
 289 0012 35ED      		ldi r19,lo8(-43)
 290 0014 3A95      		1: dec r19
 291 0016 01F4      		brne 1b
 292 0018 0000      		nop
 293               	.LBE195:
 294               	.LBE194:
 522:../../tmk_core/protocol/lufa/lufa.c ****     while (timeout-- && !Endpoint_IsReadWriteAllowed()) _delay_us(40);
 295               		.loc 1 522 0
 296 001a 2223      		tst r18
 297 001c 01F0      		breq .L30
 298               	.LVL22:
 299               	.L29:
 300               	.LBB196:
 301               	.LBB197:
 360:../../tmk_core/protocol/lufa/LUFA-git/LUFA/Drivers/USB/Core/AVR8/../AVR8/Endpoint_AVR8.h **** 				return ((UEINTX & (1 << RWAL)) ? true : false);
 302               		.loc 2 360 0
 303 001e 3091 E800 		lds r19,232
 304 0022 2150      		subi r18,lo8(-(-1))
 305               	.LBE197:
 306               	.LBE196:
 522:../../tmk_core/protocol/lufa/lufa.c ****     while (timeout-- && !Endpoint_IsReadWriteAllowed()) _delay_us(40);
 307               		.loc 1 522 0
 308 0024 35FF      		sbrs r19,5
 309 0026 00C0      		rjmp .L31
 310               	.L30:
 311               	.LBB198:
 312               	.LBB199:
 360:../../tmk_core/protocol/lufa/LUFA-git/LUFA/Drivers/USB/Core/AVR8/../AVR8/Endpoint_AVR8.h **** 				return ((UEINTX & (1 << RWAL)) ? true : false);
 313               		.loc 2 360 0
 314 0028 2091 E800 		lds r18,232
 315               	.LBE199:
 316               	.LBE198:
 523:../../tmk_core/protocol/lufa/lufa.c ****     if (!Endpoint_IsReadWriteAllowed()) return;
 317               		.loc 1 523 0
 318 002c 25FF      		sbrs r18,5
 319 002e 00C0      		rjmp .L26
 526:../../tmk_core/protocol/lufa/lufa.c ****     Endpoint_Write_Stream_LE(report, sizeof(report_mouse_t), NULL);
 320               		.loc 1 526 0
 321 0030 40E0      		ldi r20,0
 322 0032 50E0      		ldi r21,0
 323 0034 65E0      		ldi r22,lo8(5)
 324 0036 70E0      		ldi r23,0
 325 0038 0E94 0000 		call Endpoint_Write_Stream_LE
 326               	.LVL23:
 327               	.LBB200:
 328               	.LBB201:
 329               		.loc 2 456 0
 330 003c 8091 E800 		lds r24,232
 331 0040 8E77      		andi r24,lo8(126)
 332 0042 8093 E800 		sts 232,r24
 333               	.LVL24:
 334               	.L26:
 335 0046 0895      		ret
 336               	.LBE201:
 337               	.LBE200:
 338               		.cfi_endproc
 339               	.LFE115:
 341               		.section	.text.send_keyboard,"ax",@progbits
 343               	send_keyboard:
 344               	.LFB114:
 450:../../tmk_core/protocol/lufa/lufa.c **** {
 345               		.loc 1 450 0
 346               		.cfi_startproc
 347               	.LVL25:
 348 0000 CF93      		push r28
 349               	.LCFI8:
 350               		.cfi_def_cfa_offset 3
 351               		.cfi_offset 28, -2
 352 0002 DF93      		push r29
 353               	.LCFI9:
 354               		.cfi_def_cfa_offset 4
 355               		.cfi_offset 29, -3
 356               	/* prologue: function */
 357               	/* frame size = 0 */
 358               	/* stack size = 2 */
 359               	.L__stack_usage = 2
 360 0004 EC01      		movw r28,r24
 361               	.LVL26:
 461:../../tmk_core/protocol/lufa/lufa.c ****     if (USB_DeviceState != DEVICE_STATE_Configured)
 362               		.loc 1 461 0
 363 0006 8091 0000 		lds r24,USB_DeviceState
 364               	.LVL27:
 365 000a 8430      		cpi r24,lo8(4)
 366 000c 01F0      		breq .+2
 367 000e 00C0      		rjmp .L39
 466:../../tmk_core/protocol/lufa/lufa.c ****     if (keyboard_protocol && keyboard_nkro) {
 368               		.loc 1 466 0
 369 0010 8091 0000 		lds r24,keyboard_protocol
 370 0014 8823      		tst r24
 371 0016 01F0      		breq .L42
 466:../../tmk_core/protocol/lufa/lufa.c ****     if (keyboard_protocol && keyboard_nkro) {
 372               		.loc 1 466 0 is_stmt 0 discriminator 1
 373 0018 8091 0000 		lds r24,keyboard_nkro
 374 001c 8823      		tst r24
 375 001e 01F0      		breq .L42
 376               	.LVL28:
 377               	.LBB202:
 378               	.LBB203:
 270:../../tmk_core/protocol/lufa/LUFA-git/LUFA/Drivers/USB/Core/AVR8/../AVR8/Endpoint_AVR8.h **** 					UENUM = (Address & ENDPOINT_EPNUM_MASK);
 379               		.loc 2 270 0 is_stmt 1
 380 0020 85E0      		ldi r24,lo8(5)
 381 0022 8093 E900 		sts 233,r24
 382               	.LVL29:
 383 0026 8FEF      		ldi r24,lo8(-1)
 384 0028 00C0      		rjmp .L43
 385               	.L45:
 386               	.LVL30:
 387               	.LBE203:
 388               	.LBE202:
 389               	.LBB204:
 390               	.LBB205:
 391               		.loc 3 246 0
 392 002a 95E1      		ldi r25,lo8(21)
 393 002c 9A95      		1: dec r25
 394 002e 01F4      		brne 1b
 395 0030 0000      		nop
 396               	.LBE205:
 397               	.LBE204:
 471:../../tmk_core/protocol/lufa/lufa.c ****         while (timeout-- && !Endpoint_IsReadWriteAllowed()) _delay_us(4);
 398               		.loc 1 471 0
 399 0032 8823      		tst r24
 400 0034 01F0      		breq .L44
 401               	.LVL31:
 402               	.L43:
 403               	.LBB206:
 404               	.LBB207:
 360:../../tmk_core/protocol/lufa/LUFA-git/LUFA/Drivers/USB/Core/AVR8/../AVR8/Endpoint_AVR8.h **** 				return ((UEINTX & (1 << RWAL)) ? true : false);
 405               		.loc 2 360 0
 406 0036 9091 E800 		lds r25,232
 407 003a 8150      		subi r24,lo8(-(-1))
 408               	.LBE207:
 409               	.LBE206:
 471:../../tmk_core/protocol/lufa/lufa.c ****         while (timeout-- && !Endpoint_IsReadWriteAllowed()) _delay_us(4);
 410               		.loc 1 471 0
 411 003c 95FF      		sbrs r25,5
 412 003e 00C0      		rjmp .L45
 413               	.L44:
 414               	.LBB208:
 415               	.LBB209:
 360:../../tmk_core/protocol/lufa/LUFA-git/LUFA/Drivers/USB/Core/AVR8/../AVR8/Endpoint_AVR8.h **** 				return ((UEINTX & (1 << RWAL)) ? true : false);
 416               		.loc 2 360 0
 417 0040 8091 E800 		lds r24,232
 418               	.LBE209:
 419               	.LBE208:
 472:../../tmk_core/protocol/lufa/lufa.c ****         if (!Endpoint_IsReadWriteAllowed()) return;
 420               		.loc 1 472 0
 421 0044 85FF      		sbrs r24,5
 422 0046 00C0      		rjmp .L39
 475:../../tmk_core/protocol/lufa/lufa.c ****         Endpoint_Write_Stream_LE(report, NKRO_EPSIZE, NULL);
 423               		.loc 1 475 0
 424 0048 40E0      		ldi r20,0
 425 004a 50E0      		ldi r21,0
 426 004c 60E1      		ldi r22,lo8(16)
 427 004e 70E0      		ldi r23,0
 428 0050 00C0      		rjmp .L69
 429               	.LVL32:
 430               	.L42:
 431               	.LBB210:
 432               	.LBB211:
 270:../../tmk_core/protocol/lufa/LUFA-git/LUFA/Drivers/USB/Core/AVR8/../AVR8/Endpoint_AVR8.h **** 					UENUM = (Address & ENDPOINT_EPNUM_MASK);
 433               		.loc 2 270 0
 434 0052 81E0      		ldi r24,lo8(1)
 435 0054 8093 E900 		sts 233,r24
 436               	.LVL33:
 437 0058 8FEF      		ldi r24,lo8(-1)
 438 005a 00C0      		rjmp .L48
 439               	.L50:
 440               	.LVL34:
 441               	.LBE211:
 442               	.LBE210:
 443               	.LBB212:
 444               	.LBB213:
 445               		.loc 3 246 0
 446 005c 95ED      		ldi r25,lo8(-43)
 447 005e 9A95      		1: dec r25
 448 0060 01F4      		brne 1b
 449 0062 0000      		nop
 450               	.LBE213:
 451               	.LBE212:
 484:../../tmk_core/protocol/lufa/lufa.c ****         while (timeout-- && !Endpoint_IsReadWriteAllowed()) _delay_us(40);
 452               		.loc 1 484 0
 453 0064 8823      		tst r24
 454 0066 01F0      		breq .L49
 455               	.LVL35:
 456               	.L48:
 457               	.LBB214:
 458               	.LBB215:
 360:../../tmk_core/protocol/lufa/LUFA-git/LUFA/Drivers/USB/Core/AVR8/../AVR8/Endpoint_AVR8.h **** 				return ((UEINTX & (1 << RWAL)) ? true : false);
 459               		.loc 2 360 0
 460 0068 9091 E800 		lds r25,232
 461 006c 8150      		subi r24,lo8(-(-1))
 462               	.LBE215:
 463               	.LBE214:
 484:../../tmk_core/protocol/lufa/lufa.c ****         while (timeout-- && !Endpoint_IsReadWriteAllowed()) _delay_us(40);
 464               		.loc 1 484 0
 465 006e 95FF      		sbrs r25,5
 466 0070 00C0      		rjmp .L50
 467               	.L49:
 468               	.LBB216:
 469               	.LBB217:
 360:../../tmk_core/protocol/lufa/LUFA-git/LUFA/Drivers/USB/Core/AVR8/../AVR8/Endpoint_AVR8.h **** 				return ((UEINTX & (1 << RWAL)) ? true : false);
 470               		.loc 2 360 0
 471 0072 8091 E800 		lds r24,232
 472               	.LBE217:
 473               	.LBE216:
 485:../../tmk_core/protocol/lufa/lufa.c ****         if (!Endpoint_IsReadWriteAllowed()) return;
 474               		.loc 1 485 0
 475 0076 85FF      		sbrs r24,5
 476 0078 00C0      		rjmp .L39
 488:../../tmk_core/protocol/lufa/lufa.c ****         Endpoint_Write_Stream_LE(report, KEYBOARD_EPSIZE, NULL);
 477               		.loc 1 488 0
 478 007a 40E0      		ldi r20,0
 479 007c 50E0      		ldi r21,0
 480 007e 68E0      		ldi r22,lo8(8)
 481 0080 70E0      		ldi r23,0
 482               	.LVL36:
 483               	.L69:
 484 0082 CE01      		movw r24,r28
 485 0084 0E94 0000 		call Endpoint_Write_Stream_LE
 486               	.LVL37:
 487               	.LBB218:
 488               	.LBB219:
 489               		.loc 2 456 0
 490 0088 8091 E800 		lds r24,232
 491 008c 8E77      		andi r24,lo8(126)
 492 008e 8093 E800 		sts 232,r24
 493               	.LBE219:
 494               	.LBE218:
 494:../../tmk_core/protocol/lufa/lufa.c ****     keyboard_report_sent = *report;
 495               		.loc 1 494 0
 496 0092 80E1      		ldi r24,lo8(16)
 497 0094 FE01      		movw r30,r28
 498 0096 A0E0      		ldi r26,lo8(keyboard_report_sent)
 499 0098 B0E0      		ldi r27,hi8(keyboard_report_sent)
 500               		0:
 501 009a 0190      		ld r0,Z+
 502 009c 0D92      		st X+,r0
 503 009e 8A95      		dec r24
 504 00a0 01F4      		brne 0b
 505               	.L39:
 506               	/* epilogue start */
 495:../../tmk_core/protocol/lufa/lufa.c **** }
 507               		.loc 1 495 0
 508 00a2 DF91      		pop r29
 509 00a4 CF91      		pop r28
 510               	.LVL38:
 511 00a6 0895      		ret
 512               		.cfi_endproc
 513               	.LFE114:
 515               		.section	.text.EVENT_USB_Device_Connect,"ax",@progbits
 516               	.global	EVENT_USB_Device_Connect
 518               	EVENT_USB_Device_Connect:
 519               	.LFB105:
 204:../../tmk_core/protocol/lufa/lufa.c **** {
 520               		.loc 1 204 0
 521               		.cfi_startproc
 522               	/* prologue: function */
 523               	/* frame size = 0 */
 524               	/* stack size = 0 */
 525               	.L__stack_usage = 0
 207:../../tmk_core/protocol/lufa/lufa.c ****     if (!USB_IsInitialized) {
 526               		.loc 1 207 0
 527 0000 8091 0000 		lds r24,USB_IsInitialized
 528 0004 8111      		cpse r24,__zero_reg__
 529 0006 00C0      		rjmp .L70
 208:../../tmk_core/protocol/lufa/lufa.c ****         USB_Disable();
 530               		.loc 1 208 0
 531 0008 0E94 0000 		call USB_Disable
 532               	.LVL39:
 209:../../tmk_core/protocol/lufa/lufa.c ****         USB_Init();
 533               		.loc 1 209 0
 534 000c 0E94 0000 		call USB_Init
 535               	.LVL40:
 536               	.LBB220:
 537               	.LBB221:
 538               	.LBB222:
 539               		.file 4 "../../tmk_core/protocol/lufa/LUFA-git/LUFA/Drivers/USB/Core/AVR8/../AVR8/USBInterrupt_AVR
   1:../../tmk_core/protocol/lufa/LUFA-git/LUFA/Drivers/USB/Core/AVR8/../AVR8/USBInterrupt_AVR8.h **** /*
   2:../../tmk_core/protocol/lufa/LUFA-git/LUFA/Drivers/USB/Core/AVR8/../AVR8/USBInterrupt_AVR8.h ****              LUFA Library
   3:../../tmk_core/protocol/lufa/LUFA-git/LUFA/Drivers/USB/Core/AVR8/../AVR8/USBInterrupt_AVR8.h ****      Copyright (C) Dean Camera, 2014.
   4:../../tmk_core/protocol/lufa/LUFA-git/LUFA/Drivers/USB/Core/AVR8/../AVR8/USBInterrupt_AVR8.h **** 
   5:../../tmk_core/protocol/lufa/LUFA-git/LUFA/Drivers/USB/Core/AVR8/../AVR8/USBInterrupt_AVR8.h ****   dean [at] fourwalledcubicle [dot] com
   6:../../tmk_core/protocol/lufa/LUFA-git/LUFA/Drivers/USB/Core/AVR8/../AVR8/USBInterrupt_AVR8.h ****            www.lufa-lib.org
   7:../../tmk_core/protocol/lufa/LUFA-git/LUFA/Drivers/USB/Core/AVR8/../AVR8/USBInterrupt_AVR8.h **** */
   8:../../tmk_core/protocol/lufa/LUFA-git/LUFA/Drivers/USB/Core/AVR8/../AVR8/USBInterrupt_AVR8.h **** 
   9:../../tmk_core/protocol/lufa/LUFA-git/LUFA/Drivers/USB/Core/AVR8/../AVR8/USBInterrupt_AVR8.h **** /*
  10:../../tmk_core/protocol/lufa/LUFA-git/LUFA/Drivers/USB/Core/AVR8/../AVR8/USBInterrupt_AVR8.h ****   Copyright 2014  Dean Camera (dean [at] fourwalledcubicle [dot] com)
  11:../../tmk_core/protocol/lufa/LUFA-git/LUFA/Drivers/USB/Core/AVR8/../AVR8/USBInterrupt_AVR8.h **** 
  12:../../tmk_core/protocol/lufa/LUFA-git/LUFA/Drivers/USB/Core/AVR8/../AVR8/USBInterrupt_AVR8.h ****   Permission to use, copy, modify, distribute, and sell this
  13:../../tmk_core/protocol/lufa/LUFA-git/LUFA/Drivers/USB/Core/AVR8/../AVR8/USBInterrupt_AVR8.h ****   software and its documentation for any purpose is hereby granted
  14:../../tmk_core/protocol/lufa/LUFA-git/LUFA/Drivers/USB/Core/AVR8/../AVR8/USBInterrupt_AVR8.h ****   without fee, provided that the above copyright notice appear in
  15:../../tmk_core/protocol/lufa/LUFA-git/LUFA/Drivers/USB/Core/AVR8/../AVR8/USBInterrupt_AVR8.h ****   all copies and that both that the copyright notice and this
  16:../../tmk_core/protocol/lufa/LUFA-git/LUFA/Drivers/USB/Core/AVR8/../AVR8/USBInterrupt_AVR8.h ****   permission notice and warranty disclaimer appear in supporting
  17:../../tmk_core/protocol/lufa/LUFA-git/LUFA/Drivers/USB/Core/AVR8/../AVR8/USBInterrupt_AVR8.h ****   documentation, and that the name of the author not be used in
  18:../../tmk_core/protocol/lufa/LUFA-git/LUFA/Drivers/USB/Core/AVR8/../AVR8/USBInterrupt_AVR8.h ****   advertising or publicity pertaining to distribution of the
  19:../../tmk_core/protocol/lufa/LUFA-git/LUFA/Drivers/USB/Core/AVR8/../AVR8/USBInterrupt_AVR8.h ****   software without specific, written prior permission.
  20:../../tmk_core/protocol/lufa/LUFA-git/LUFA/Drivers/USB/Core/AVR8/../AVR8/USBInterrupt_AVR8.h **** 
  21:../../tmk_core/protocol/lufa/LUFA-git/LUFA/Drivers/USB/Core/AVR8/../AVR8/USBInterrupt_AVR8.h ****   The author disclaims all warranties with regard to this
  22:../../tmk_core/protocol/lufa/LUFA-git/LUFA/Drivers/USB/Core/AVR8/../AVR8/USBInterrupt_AVR8.h ****   software, including all implied warranties of merchantability
  23:../../tmk_core/protocol/lufa/LUFA-git/LUFA/Drivers/USB/Core/AVR8/../AVR8/USBInterrupt_AVR8.h ****   and fitness.  In no event shall the author be liable for any
  24:../../tmk_core/protocol/lufa/LUFA-git/LUFA/Drivers/USB/Core/AVR8/../AVR8/USBInterrupt_AVR8.h ****   special, indirect or consequential damages or any damages
  25:../../tmk_core/protocol/lufa/LUFA-git/LUFA/Drivers/USB/Core/AVR8/../AVR8/USBInterrupt_AVR8.h ****   whatsoever resulting from loss of use, data or profits, whether
  26:../../tmk_core/protocol/lufa/LUFA-git/LUFA/Drivers/USB/Core/AVR8/../AVR8/USBInterrupt_AVR8.h ****   in an action of contract, negligence or other tortious action,
  27:../../tmk_core/protocol/lufa/LUFA-git/LUFA/Drivers/USB/Core/AVR8/../AVR8/USBInterrupt_AVR8.h ****   arising out of or in connection with the use or performance of
  28:../../tmk_core/protocol/lufa/LUFA-git/LUFA/Drivers/USB/Core/AVR8/../AVR8/USBInterrupt_AVR8.h ****   this software.
  29:../../tmk_core/protocol/lufa/LUFA-git/LUFA/Drivers/USB/Core/AVR8/../AVR8/USBInterrupt_AVR8.h **** */
  30:../../tmk_core/protocol/lufa/LUFA-git/LUFA/Drivers/USB/Core/AVR8/../AVR8/USBInterrupt_AVR8.h **** 
  31:../../tmk_core/protocol/lufa/LUFA-git/LUFA/Drivers/USB/Core/AVR8/../AVR8/USBInterrupt_AVR8.h **** /** \file
  32:../../tmk_core/protocol/lufa/LUFA-git/LUFA/Drivers/USB/Core/AVR8/../AVR8/USBInterrupt_AVR8.h ****  *  \brief USB Controller Interrupt definitions for the AVR8 microcontrollers.
  33:../../tmk_core/protocol/lufa/LUFA-git/LUFA/Drivers/USB/Core/AVR8/../AVR8/USBInterrupt_AVR8.h ****  *
  34:../../tmk_core/protocol/lufa/LUFA-git/LUFA/Drivers/USB/Core/AVR8/../AVR8/USBInterrupt_AVR8.h ****  *  This file contains definitions required for the correct handling of low level USB service routi
  35:../../tmk_core/protocol/lufa/LUFA-git/LUFA/Drivers/USB/Core/AVR8/../AVR8/USBInterrupt_AVR8.h ****  *  from the USB controller.
  36:../../tmk_core/protocol/lufa/LUFA-git/LUFA/Drivers/USB/Core/AVR8/../AVR8/USBInterrupt_AVR8.h ****  *
  37:../../tmk_core/protocol/lufa/LUFA-git/LUFA/Drivers/USB/Core/AVR8/../AVR8/USBInterrupt_AVR8.h ****  *  \note This file should not be included directly. It is automatically included as needed by the 
  38:../../tmk_core/protocol/lufa/LUFA-git/LUFA/Drivers/USB/Core/AVR8/../AVR8/USBInterrupt_AVR8.h ****  *        dispatch header located in LUFA/Drivers/USB/USB.h.
  39:../../tmk_core/protocol/lufa/LUFA-git/LUFA/Drivers/USB/Core/AVR8/../AVR8/USBInterrupt_AVR8.h ****  */
  40:../../tmk_core/protocol/lufa/LUFA-git/LUFA/Drivers/USB/Core/AVR8/../AVR8/USBInterrupt_AVR8.h **** 
  41:../../tmk_core/protocol/lufa/LUFA-git/LUFA/Drivers/USB/Core/AVR8/../AVR8/USBInterrupt_AVR8.h **** #ifndef __USBINTERRUPT_AVR8_H__
  42:../../tmk_core/protocol/lufa/LUFA-git/LUFA/Drivers/USB/Core/AVR8/../AVR8/USBInterrupt_AVR8.h **** #define __USBINTERRUPT_AVR8_H__
  43:../../tmk_core/protocol/lufa/LUFA-git/LUFA/Drivers/USB/Core/AVR8/../AVR8/USBInterrupt_AVR8.h **** 
  44:../../tmk_core/protocol/lufa/LUFA-git/LUFA/Drivers/USB/Core/AVR8/../AVR8/USBInterrupt_AVR8.h **** 	/* Includes: */
  45:../../tmk_core/protocol/lufa/LUFA-git/LUFA/Drivers/USB/Core/AVR8/../AVR8/USBInterrupt_AVR8.h **** 		#include "../../../../Common/Common.h"
  46:../../tmk_core/protocol/lufa/LUFA-git/LUFA/Drivers/USB/Core/AVR8/../AVR8/USBInterrupt_AVR8.h **** 
  47:../../tmk_core/protocol/lufa/LUFA-git/LUFA/Drivers/USB/Core/AVR8/../AVR8/USBInterrupt_AVR8.h **** 	/* Enable C linkage for C++ Compilers: */
  48:../../tmk_core/protocol/lufa/LUFA-git/LUFA/Drivers/USB/Core/AVR8/../AVR8/USBInterrupt_AVR8.h **** 		#if defined(__cplusplus)
  49:../../tmk_core/protocol/lufa/LUFA-git/LUFA/Drivers/USB/Core/AVR8/../AVR8/USBInterrupt_AVR8.h **** 			extern "C" {
  50:../../tmk_core/protocol/lufa/LUFA-git/LUFA/Drivers/USB/Core/AVR8/../AVR8/USBInterrupt_AVR8.h **** 		#endif
  51:../../tmk_core/protocol/lufa/LUFA-git/LUFA/Drivers/USB/Core/AVR8/../AVR8/USBInterrupt_AVR8.h **** 
  52:../../tmk_core/protocol/lufa/LUFA-git/LUFA/Drivers/USB/Core/AVR8/../AVR8/USBInterrupt_AVR8.h **** 	/* Preprocessor Checks: */
  53:../../tmk_core/protocol/lufa/LUFA-git/LUFA/Drivers/USB/Core/AVR8/../AVR8/USBInterrupt_AVR8.h **** 		#if !defined(__INCLUDE_FROM_USB_DRIVER)
  54:../../tmk_core/protocol/lufa/LUFA-git/LUFA/Drivers/USB/Core/AVR8/../AVR8/USBInterrupt_AVR8.h **** 			#error Do not include this file directly. Include LUFA/Drivers/USB/USB.h instead.
  55:../../tmk_core/protocol/lufa/LUFA-git/LUFA/Drivers/USB/Core/AVR8/../AVR8/USBInterrupt_AVR8.h **** 		#endif
  56:../../tmk_core/protocol/lufa/LUFA-git/LUFA/Drivers/USB/Core/AVR8/../AVR8/USBInterrupt_AVR8.h **** 
  57:../../tmk_core/protocol/lufa/LUFA-git/LUFA/Drivers/USB/Core/AVR8/../AVR8/USBInterrupt_AVR8.h **** 	/* Private Interface - For use in library only: */
  58:../../tmk_core/protocol/lufa/LUFA-git/LUFA/Drivers/USB/Core/AVR8/../AVR8/USBInterrupt_AVR8.h **** 	#if !defined(__DOXYGEN__)
  59:../../tmk_core/protocol/lufa/LUFA-git/LUFA/Drivers/USB/Core/AVR8/../AVR8/USBInterrupt_AVR8.h **** 		/* Enums: */
  60:../../tmk_core/protocol/lufa/LUFA-git/LUFA/Drivers/USB/Core/AVR8/../AVR8/USBInterrupt_AVR8.h **** 			enum USB_Interrupts_t
  61:../../tmk_core/protocol/lufa/LUFA-git/LUFA/Drivers/USB/Core/AVR8/../AVR8/USBInterrupt_AVR8.h **** 			{
  62:../../tmk_core/protocol/lufa/LUFA-git/LUFA/Drivers/USB/Core/AVR8/../AVR8/USBInterrupt_AVR8.h **** 				#if (defined(USB_SERIES_4_AVR) || defined(USB_SERIES_6_AVR) || defined(USB_SERIES_7_AVR) || def
  63:../../tmk_core/protocol/lufa/LUFA-git/LUFA/Drivers/USB/Core/AVR8/../AVR8/USBInterrupt_AVR8.h **** 				USB_INT_VBUSTI  = 0,
  64:../../tmk_core/protocol/lufa/LUFA-git/LUFA/Drivers/USB/Core/AVR8/../AVR8/USBInterrupt_AVR8.h **** 				#endif
  65:../../tmk_core/protocol/lufa/LUFA-git/LUFA/Drivers/USB/Core/AVR8/../AVR8/USBInterrupt_AVR8.h **** 				#if (defined(USB_CAN_BE_BOTH) || defined(__DOXYGEN__))
  66:../../tmk_core/protocol/lufa/LUFA-git/LUFA/Drivers/USB/Core/AVR8/../AVR8/USBInterrupt_AVR8.h **** 				USB_INT_IDTI    = 1,
  67:../../tmk_core/protocol/lufa/LUFA-git/LUFA/Drivers/USB/Core/AVR8/../AVR8/USBInterrupt_AVR8.h **** 				#endif
  68:../../tmk_core/protocol/lufa/LUFA-git/LUFA/Drivers/USB/Core/AVR8/../AVR8/USBInterrupt_AVR8.h **** 				#if (defined(USB_CAN_BE_DEVICE) || defined(__DOXYGEN__))
  69:../../tmk_core/protocol/lufa/LUFA-git/LUFA/Drivers/USB/Core/AVR8/../AVR8/USBInterrupt_AVR8.h **** 				USB_INT_WAKEUPI = 2,
  70:../../tmk_core/protocol/lufa/LUFA-git/LUFA/Drivers/USB/Core/AVR8/../AVR8/USBInterrupt_AVR8.h **** 				USB_INT_SUSPI   = 3,
  71:../../tmk_core/protocol/lufa/LUFA-git/LUFA/Drivers/USB/Core/AVR8/../AVR8/USBInterrupt_AVR8.h **** 				USB_INT_EORSTI  = 4,
  72:../../tmk_core/protocol/lufa/LUFA-git/LUFA/Drivers/USB/Core/AVR8/../AVR8/USBInterrupt_AVR8.h **** 				USB_INT_SOFI    = 5,
  73:../../tmk_core/protocol/lufa/LUFA-git/LUFA/Drivers/USB/Core/AVR8/../AVR8/USBInterrupt_AVR8.h **** 				USB_INT_RXSTPI  = 6,
  74:../../tmk_core/protocol/lufa/LUFA-git/LUFA/Drivers/USB/Core/AVR8/../AVR8/USBInterrupt_AVR8.h **** 				#endif
  75:../../tmk_core/protocol/lufa/LUFA-git/LUFA/Drivers/USB/Core/AVR8/../AVR8/USBInterrupt_AVR8.h **** 				#if (defined(USB_CAN_BE_HOST) || defined(__DOXYGEN__))
  76:../../tmk_core/protocol/lufa/LUFA-git/LUFA/Drivers/USB/Core/AVR8/../AVR8/USBInterrupt_AVR8.h **** 				USB_INT_HSOFI   = 7,
  77:../../tmk_core/protocol/lufa/LUFA-git/LUFA/Drivers/USB/Core/AVR8/../AVR8/USBInterrupt_AVR8.h **** 				USB_INT_DCONNI  = 8,
  78:../../tmk_core/protocol/lufa/LUFA-git/LUFA/Drivers/USB/Core/AVR8/../AVR8/USBInterrupt_AVR8.h **** 				USB_INT_DDISCI  = 9,
  79:../../tmk_core/protocol/lufa/LUFA-git/LUFA/Drivers/USB/Core/AVR8/../AVR8/USBInterrupt_AVR8.h **** 				USB_INT_RSTI    = 10,
  80:../../tmk_core/protocol/lufa/LUFA-git/LUFA/Drivers/USB/Core/AVR8/../AVR8/USBInterrupt_AVR8.h **** 				USB_INT_BCERRI  = 11,
  81:../../tmk_core/protocol/lufa/LUFA-git/LUFA/Drivers/USB/Core/AVR8/../AVR8/USBInterrupt_AVR8.h **** 				USB_INT_VBERRI  = 12,
  82:../../tmk_core/protocol/lufa/LUFA-git/LUFA/Drivers/USB/Core/AVR8/../AVR8/USBInterrupt_AVR8.h **** 				USB_INT_SRPI    = 13,
  83:../../tmk_core/protocol/lufa/LUFA-git/LUFA/Drivers/USB/Core/AVR8/../AVR8/USBInterrupt_AVR8.h **** 				#endif
  84:../../tmk_core/protocol/lufa/LUFA-git/LUFA/Drivers/USB/Core/AVR8/../AVR8/USBInterrupt_AVR8.h **** 			};
  85:../../tmk_core/protocol/lufa/LUFA-git/LUFA/Drivers/USB/Core/AVR8/../AVR8/USBInterrupt_AVR8.h **** 
  86:../../tmk_core/protocol/lufa/LUFA-git/LUFA/Drivers/USB/Core/AVR8/../AVR8/USBInterrupt_AVR8.h **** 		/* Inline Functions: */
  87:../../tmk_core/protocol/lufa/LUFA-git/LUFA/Drivers/USB/Core/AVR8/../AVR8/USBInterrupt_AVR8.h **** 			static inline void USB_INT_Enable(const uint8_t Interrupt) ATTR_ALWAYS_INLINE;
  88:../../tmk_core/protocol/lufa/LUFA-git/LUFA/Drivers/USB/Core/AVR8/../AVR8/USBInterrupt_AVR8.h **** 			static inline void USB_INT_Enable(const uint8_t Interrupt)
  89:../../tmk_core/protocol/lufa/LUFA-git/LUFA/Drivers/USB/Core/AVR8/../AVR8/USBInterrupt_AVR8.h **** 			{
  90:../../tmk_core/protocol/lufa/LUFA-git/LUFA/Drivers/USB/Core/AVR8/../AVR8/USBInterrupt_AVR8.h **** 				switch (Interrupt)
  91:../../tmk_core/protocol/lufa/LUFA-git/LUFA/Drivers/USB/Core/AVR8/../AVR8/USBInterrupt_AVR8.h **** 				{
  92:../../tmk_core/protocol/lufa/LUFA-git/LUFA/Drivers/USB/Core/AVR8/../AVR8/USBInterrupt_AVR8.h **** 					#if (defined(USB_SERIES_4_AVR) || defined(USB_SERIES_6_AVR) || defined(USB_SERIES_7_AVR))
  93:../../tmk_core/protocol/lufa/LUFA-git/LUFA/Drivers/USB/Core/AVR8/../AVR8/USBInterrupt_AVR8.h **** 					case USB_INT_VBUSTI:
  94:../../tmk_core/protocol/lufa/LUFA-git/LUFA/Drivers/USB/Core/AVR8/../AVR8/USBInterrupt_AVR8.h **** 						USBCON |= (1 << VBUSTE);
  95:../../tmk_core/protocol/lufa/LUFA-git/LUFA/Drivers/USB/Core/AVR8/../AVR8/USBInterrupt_AVR8.h **** 						break;
  96:../../tmk_core/protocol/lufa/LUFA-git/LUFA/Drivers/USB/Core/AVR8/../AVR8/USBInterrupt_AVR8.h **** 					#endif
  97:../../tmk_core/protocol/lufa/LUFA-git/LUFA/Drivers/USB/Core/AVR8/../AVR8/USBInterrupt_AVR8.h **** 					#if defined(USB_CAN_BE_BOTH)
  98:../../tmk_core/protocol/lufa/LUFA-git/LUFA/Drivers/USB/Core/AVR8/../AVR8/USBInterrupt_AVR8.h **** 					case USB_INT_IDTI:
  99:../../tmk_core/protocol/lufa/LUFA-git/LUFA/Drivers/USB/Core/AVR8/../AVR8/USBInterrupt_AVR8.h **** 						USBCON |= (1 << IDTE);
 100:../../tmk_core/protocol/lufa/LUFA-git/LUFA/Drivers/USB/Core/AVR8/../AVR8/USBInterrupt_AVR8.h **** 						break;
 101:../../tmk_core/protocol/lufa/LUFA-git/LUFA/Drivers/USB/Core/AVR8/../AVR8/USBInterrupt_AVR8.h **** 					#endif
 102:../../tmk_core/protocol/lufa/LUFA-git/LUFA/Drivers/USB/Core/AVR8/../AVR8/USBInterrupt_AVR8.h **** 					#if defined(USB_CAN_BE_DEVICE)
 103:../../tmk_core/protocol/lufa/LUFA-git/LUFA/Drivers/USB/Core/AVR8/../AVR8/USBInterrupt_AVR8.h **** 					case USB_INT_WAKEUPI:
 104:../../tmk_core/protocol/lufa/LUFA-git/LUFA/Drivers/USB/Core/AVR8/../AVR8/USBInterrupt_AVR8.h **** 						UDIEN  |= (1 << WAKEUPE);
 105:../../tmk_core/protocol/lufa/LUFA-git/LUFA/Drivers/USB/Core/AVR8/../AVR8/USBInterrupt_AVR8.h **** 						break;
 106:../../tmk_core/protocol/lufa/LUFA-git/LUFA/Drivers/USB/Core/AVR8/../AVR8/USBInterrupt_AVR8.h **** 					case USB_INT_SUSPI:
 107:../../tmk_core/protocol/lufa/LUFA-git/LUFA/Drivers/USB/Core/AVR8/../AVR8/USBInterrupt_AVR8.h **** 						UDIEN  |= (1 << SUSPE);
 108:../../tmk_core/protocol/lufa/LUFA-git/LUFA/Drivers/USB/Core/AVR8/../AVR8/USBInterrupt_AVR8.h **** 						break;
 109:../../tmk_core/protocol/lufa/LUFA-git/LUFA/Drivers/USB/Core/AVR8/../AVR8/USBInterrupt_AVR8.h **** 					case USB_INT_EORSTI:
 110:../../tmk_core/protocol/lufa/LUFA-git/LUFA/Drivers/USB/Core/AVR8/../AVR8/USBInterrupt_AVR8.h **** 						UDIEN  |= (1 << EORSTE);
 111:../../tmk_core/protocol/lufa/LUFA-git/LUFA/Drivers/USB/Core/AVR8/../AVR8/USBInterrupt_AVR8.h **** 						break;
 112:../../tmk_core/protocol/lufa/LUFA-git/LUFA/Drivers/USB/Core/AVR8/../AVR8/USBInterrupt_AVR8.h **** 					case USB_INT_SOFI:
 113:../../tmk_core/protocol/lufa/LUFA-git/LUFA/Drivers/USB/Core/AVR8/../AVR8/USBInterrupt_AVR8.h **** 						UDIEN  |= (1 << SOFE);
 540               		.loc 4 113 0
 541 0010 8091 E200 		lds r24,226
 542 0014 8460      		ori r24,lo8(4)
 543 0016 8093 E200 		sts 226,r24
 544               	.LVL41:
 545               	.L70:
 546 001a 0895      		ret
 547               	.LBE222:
 548               	.LBE221:
 549               	.LBE220:
 550               		.cfi_endproc
 551               	.LFE105:
 553               		.section	.text.EVENT_USB_Device_Disconnect,"ax",@progbits
 554               	.global	EVENT_USB_Device_Disconnect
 556               	EVENT_USB_Device_Disconnect:
 557               	.LFB106:
 215:../../tmk_core/protocol/lufa/lufa.c **** {
 558               		.loc 1 215 0
 559               		.cfi_startproc
 560               	/* prologue: function */
 561               	/* frame size = 0 */
 562               	/* stack size = 0 */
 563               	.L__stack_usage = 0
 218:../../tmk_core/protocol/lufa/lufa.c ****     USB_IsInitialized = false;
 564               		.loc 1 218 0
 565 0000 1092 0000 		sts USB_IsInitialized,__zero_reg__
 566 0004 0895      		ret
 567               		.cfi_endproc
 568               	.LFE106:
 570               		.section	.text.EVENT_USB_Device_Reset,"ax",@progbits
 571               	.global	EVENT_USB_Device_Reset
 573               	EVENT_USB_Device_Reset:
 574               	.LFB107:
 229:../../tmk_core/protocol/lufa/lufa.c **** {
 575               		.loc 1 229 0
 576               		.cfi_startproc
 577               	/* prologue: function */
 578               	/* frame size = 0 */
 579               	/* stack size = 0 */
 580               	.L__stack_usage = 0
 581 0000 0895      		ret
 582               		.cfi_endproc
 583               	.LFE107:
 585               		.section	.text.EVENT_USB_Device_Suspend,"ax",@progbits
 586               	.global	EVENT_USB_Device_Suspend
 588               	EVENT_USB_Device_Suspend:
 589               	.LFB108:
 234:../../tmk_core/protocol/lufa/lufa.c **** {
 590               		.loc 1 234 0
 591               		.cfi_startproc
 592               	/* prologue: function */
 593               	/* frame size = 0 */
 594               	/* stack size = 0 */
 595               	.L__stack_usage = 0
 596 0000 0895      		ret
 597               		.cfi_endproc
 598               	.LFE108:
 600               		.section	.text.EVENT_USB_Device_WakeUp,"ax",@progbits
 601               	.global	EVENT_USB_Device_WakeUp
 603               	EVENT_USB_Device_WakeUp:
 604               	.LFB109:
 242:../../tmk_core/protocol/lufa/lufa.c **** {
 605               		.loc 1 242 0
 606               		.cfi_startproc
 607               	/* prologue: function */
 608               	/* frame size = 0 */
 609               	/* stack size = 0 */
 610               	.L__stack_usage = 0
 244:../../tmk_core/protocol/lufa/lufa.c ****     suspend_wakeup_init();
 611               		.loc 1 244 0
 612 0000 0C94 0000 		jmp suspend_wakeup_init
 613               	.LVL42:
 614               		.cfi_endproc
 615               	.LFE109:
 617               		.section	.text.EVENT_USB_Device_StartOfFrame,"ax",@progbits
 618               	.global	EVENT_USB_Device_StartOfFrame
 620               	EVENT_USB_Device_StartOfFrame:
 621               	.LFB110:
 261:../../tmk_core/protocol/lufa/lufa.c **** {
 622               		.loc 1 261 0
 623               		.cfi_startproc
 624               	/* prologue: function */
 625               	/* frame size = 0 */
 626               	/* stack size = 0 */
 627               	.L__stack_usage = 0
 263:../../tmk_core/protocol/lufa/lufa.c ****     if (++count % 50) return;
 628               		.loc 1 263 0
 629 0000 8091 0000 		lds r24,count.4501
 630 0004 8F5F      		subi r24,lo8(-(1))
 631 0006 8093 0000 		sts count.4501,r24
 632 000a 62E3      		ldi r22,lo8(50)
 633 000c 0E94 0000 		call __udivmodqi4
 634 0010 9111      		cpse r25,__zero_reg__
 635 0012 00C0      		rjmp .L76
 264:../../tmk_core/protocol/lufa/lufa.c ****     count = 0;
 636               		.loc 1 264 0
 637 0014 1092 0000 		sts count.4501,__zero_reg__
 266:../../tmk_core/protocol/lufa/lufa.c ****     if (!console_flush) return;
 638               		.loc 1 266 0
 639 0018 8091 0000 		lds r24,console_flush
 640 001c 8823      		tst r24
 641 001e 01F0      		breq .L76
 642               	.LBB247:
 643               	.LBB248:
 138:../../tmk_core/protocol/lufa/lufa.c ****     if (USB_DeviceState != DEVICE_STATE_Configured)
 644               		.loc 1 138 0
 645 0020 8091 0000 		lds r24,USB_DeviceState
 646 0024 8430      		cpi r24,lo8(4)
 647 0026 01F4      		brne .L80
 648               	.LBB249:
 649               	.LBB250:
 253:../../tmk_core/protocol/lufa/LUFA-git/LUFA/Drivers/USB/Core/AVR8/../AVR8/Endpoint_AVR8.h **** 					return ((UENUM & ENDPOINT_EPNUM_MASK) | Endpoint_GetEndpointDirection());
 650               		.loc 2 253 0
 651 0028 8091 E900 		lds r24,233
 652               	.LBE250:
 653 002c 8F70      		andi r24,lo8(15)
 654               	.LBB253:
 655               	.LBB251:
 656               	.LBB252:
 240:../../tmk_core/protocol/lufa/LUFA-git/LUFA/Drivers/USB/Core/AVR8/../AVR8/Endpoint_AVR8.h **** 				return (UECFG0X & (1 << EPDIR)) ? ENDPOINT_DIR_IN : ENDPOINT_DIR_OUT;
 657               		.loc 2 240 0
 658 002e 9091 EC00 		lds r25,236
 659 0032 90FF      		sbrs r25,0
 660 0034 00C0      		rjmp .L86
 661 0036 90E8      		ldi r25,lo8(-128)
 662 0038 00C0      		rjmp .L81
 663               	.L86:
 664 003a 90E0      		ldi r25,0
 665               	.L81:
 666               	.LBE252:
 667               	.LBE251:
 668               	.LBE253:
 253:../../tmk_core/protocol/lufa/LUFA-git/LUFA/Drivers/USB/Core/AVR8/../AVR8/Endpoint_AVR8.h **** 					return ((UENUM & ENDPOINT_EPNUM_MASK) | Endpoint_GetEndpointDirection());
 669               		.loc 2 253 0
 670 003c 982B      		or r25,r24
 671               	.LVL43:
 672               	.LBE249:
 673               	.LBB254:
 674               	.LBB255:
 270:../../tmk_core/protocol/lufa/LUFA-git/LUFA/Drivers/USB/Core/AVR8/../AVR8/Endpoint_AVR8.h **** 					UENUM = (Address & ENDPOINT_EPNUM_MASK);
 675               		.loc 2 270 0
 676 003e 84E0      		ldi r24,lo8(4)
 677 0040 8093 E900 		sts 233,r24
 678               	.LBE255:
 679               	.LBE254:
 680               	.LBB256:
 681               	.LBB257:
 313:../../tmk_core/protocol/lufa/LUFA-git/LUFA/Drivers/USB/Core/AVR8/../AVR8/Endpoint_AVR8.h **** 				return ((UECONX & (1 << EPEN)) ? true : false);
 682               		.loc 2 313 0
 683 0044 8091 EB00 		lds r24,235
 684               	.LBE257:
 685               	.LBE256:
 170:../../tmk_core/protocol/lufa/lufa.c ****     if (!Endpoint_IsEnabled() || !Endpoint_IsConfigured()) {
 686               		.loc 1 170 0
 687 0048 80FF      		sbrs r24,0
 688 004a 00C0      		rjmp .L85
 689               	.LBB258:
 690               	.LBB259:
 370:../../tmk_core/protocol/lufa/LUFA-git/LUFA/Drivers/USB/Core/AVR8/../AVR8/Endpoint_AVR8.h **** 				return ((UESTA0X & (1 << CFGOK)) ? true : false);
 691               		.loc 2 370 0
 692 004c 8091 EE00 		lds r24,238
 693               	.LBE259:
 694               	.LBE258:
 170:../../tmk_core/protocol/lufa/lufa.c ****     if (!Endpoint_IsEnabled() || !Endpoint_IsConfigured()) {
 695               		.loc 1 170 0
 696 0050 87FD      		sbrc r24,7
 697 0052 00C0      		rjmp .L93
 698               	.LVL44:
 699 0054 00C0      		rjmp .L85
 700               	.LVL45:
 701               	.L84:
 702               	.LBB260:
 703               	.LBB261:
 457:../../tmk_core/protocol/lufa/LUFA-git/LUFA/Drivers/USB/Core/AVR8/../AVR8/Endpoint_AVR8.h **** 				#else
 458:../../tmk_core/protocol/lufa/LUFA-git/LUFA/Drivers/USB/Core/AVR8/../AVR8/Endpoint_AVR8.h **** 					UEINTX &= ~(1 << TXINI);
 459:../../tmk_core/protocol/lufa/LUFA-git/LUFA/Drivers/USB/Core/AVR8/../AVR8/Endpoint_AVR8.h **** 				#endif
 460:../../tmk_core/protocol/lufa/LUFA-git/LUFA/Drivers/USB/Core/AVR8/../AVR8/Endpoint_AVR8.h **** 			}
 461:../../tmk_core/protocol/lufa/LUFA-git/LUFA/Drivers/USB/Core/AVR8/../AVR8/Endpoint_AVR8.h **** 
 462:../../tmk_core/protocol/lufa/LUFA-git/LUFA/Drivers/USB/Core/AVR8/../AVR8/Endpoint_AVR8.h **** 			/** Acknowledges an OUT packet to the host on the currently selected endpoint, freeing up the en
 463:../../tmk_core/protocol/lufa/LUFA-git/LUFA/Drivers/USB/Core/AVR8/../AVR8/Endpoint_AVR8.h **** 			 *  for the next packet and switching to the alternative endpoint bank if double banked.
 464:../../tmk_core/protocol/lufa/LUFA-git/LUFA/Drivers/USB/Core/AVR8/../AVR8/Endpoint_AVR8.h **** 			 *
 465:../../tmk_core/protocol/lufa/LUFA-git/LUFA/Drivers/USB/Core/AVR8/../AVR8/Endpoint_AVR8.h **** 			 *  \ingroup Group_EndpointPacketManagement_AVR8
 466:../../tmk_core/protocol/lufa/LUFA-git/LUFA/Drivers/USB/Core/AVR8/../AVR8/Endpoint_AVR8.h **** 			 */
 467:../../tmk_core/protocol/lufa/LUFA-git/LUFA/Drivers/USB/Core/AVR8/../AVR8/Endpoint_AVR8.h **** 			static inline void Endpoint_ClearOUT(void) ATTR_ALWAYS_INLINE;
 468:../../tmk_core/protocol/lufa/LUFA-git/LUFA/Drivers/USB/Core/AVR8/../AVR8/Endpoint_AVR8.h **** 			static inline void Endpoint_ClearOUT(void)
 469:../../tmk_core/protocol/lufa/LUFA-git/LUFA/Drivers/USB/Core/AVR8/../AVR8/Endpoint_AVR8.h **** 			{
 470:../../tmk_core/protocol/lufa/LUFA-git/LUFA/Drivers/USB/Core/AVR8/../AVR8/Endpoint_AVR8.h **** 				#if !defined(CONTROL_ONLY_DEVICE)
 471:../../tmk_core/protocol/lufa/LUFA-git/LUFA/Drivers/USB/Core/AVR8/../AVR8/Endpoint_AVR8.h **** 					UEINTX &= ~((1 << RXOUTI) | (1 << FIFOCON));
 472:../../tmk_core/protocol/lufa/LUFA-git/LUFA/Drivers/USB/Core/AVR8/../AVR8/Endpoint_AVR8.h **** 				#else
 473:../../tmk_core/protocol/lufa/LUFA-git/LUFA/Drivers/USB/Core/AVR8/../AVR8/Endpoint_AVR8.h **** 					UEINTX &= ~(1 << RXOUTI);
 474:../../tmk_core/protocol/lufa/LUFA-git/LUFA/Drivers/USB/Core/AVR8/../AVR8/Endpoint_AVR8.h **** 				#endif
 475:../../tmk_core/protocol/lufa/LUFA-git/LUFA/Drivers/USB/Core/AVR8/../AVR8/Endpoint_AVR8.h **** 			}
 476:../../tmk_core/protocol/lufa/LUFA-git/LUFA/Drivers/USB/Core/AVR8/../AVR8/Endpoint_AVR8.h **** 
 477:../../tmk_core/protocol/lufa/LUFA-git/LUFA/Drivers/USB/Core/AVR8/../AVR8/Endpoint_AVR8.h **** 			/** Stalls the current endpoint, indicating to the host that a logical problem occurred with the
 478:../../tmk_core/protocol/lufa/LUFA-git/LUFA/Drivers/USB/Core/AVR8/../AVR8/Endpoint_AVR8.h **** 			 *  indicated endpoint and that the current transfer sequence should be aborted. This provides a
 479:../../tmk_core/protocol/lufa/LUFA-git/LUFA/Drivers/USB/Core/AVR8/../AVR8/Endpoint_AVR8.h **** 			 *  way for devices to indicate invalid commands to the host so that the current transfer can be
 480:../../tmk_core/protocol/lufa/LUFA-git/LUFA/Drivers/USB/Core/AVR8/../AVR8/Endpoint_AVR8.h **** 			 *  aborted and the host can begin its own recovery sequence.
 481:../../tmk_core/protocol/lufa/LUFA-git/LUFA/Drivers/USB/Core/AVR8/../AVR8/Endpoint_AVR8.h **** 			 *
 482:../../tmk_core/protocol/lufa/LUFA-git/LUFA/Drivers/USB/Core/AVR8/../AVR8/Endpoint_AVR8.h **** 			 *  The currently selected endpoint remains stalled until either the \ref Endpoint_ClearStall() 
 483:../../tmk_core/protocol/lufa/LUFA-git/LUFA/Drivers/USB/Core/AVR8/../AVR8/Endpoint_AVR8.h **** 			 *  is called, or the host issues a CLEAR FEATURE request to the device for the currently select
 484:../../tmk_core/protocol/lufa/LUFA-git/LUFA/Drivers/USB/Core/AVR8/../AVR8/Endpoint_AVR8.h **** 			 *  endpoint.
 485:../../tmk_core/protocol/lufa/LUFA-git/LUFA/Drivers/USB/Core/AVR8/../AVR8/Endpoint_AVR8.h **** 			 *
 486:../../tmk_core/protocol/lufa/LUFA-git/LUFA/Drivers/USB/Core/AVR8/../AVR8/Endpoint_AVR8.h **** 			 *  \ingroup Group_EndpointPacketManagement_AVR8
 487:../../tmk_core/protocol/lufa/LUFA-git/LUFA/Drivers/USB/Core/AVR8/../AVR8/Endpoint_AVR8.h **** 			 */
 488:../../tmk_core/protocol/lufa/LUFA-git/LUFA/Drivers/USB/Core/AVR8/../AVR8/Endpoint_AVR8.h **** 			static inline void Endpoint_StallTransaction(void) ATTR_ALWAYS_INLINE;
 489:../../tmk_core/protocol/lufa/LUFA-git/LUFA/Drivers/USB/Core/AVR8/../AVR8/Endpoint_AVR8.h **** 			static inline void Endpoint_StallTransaction(void)
 490:../../tmk_core/protocol/lufa/LUFA-git/LUFA/Drivers/USB/Core/AVR8/../AVR8/Endpoint_AVR8.h **** 			{
 491:../../tmk_core/protocol/lufa/LUFA-git/LUFA/Drivers/USB/Core/AVR8/../AVR8/Endpoint_AVR8.h **** 				UECONX |= (1 << STALLRQ);
 492:../../tmk_core/protocol/lufa/LUFA-git/LUFA/Drivers/USB/Core/AVR8/../AVR8/Endpoint_AVR8.h **** 			}
 493:../../tmk_core/protocol/lufa/LUFA-git/LUFA/Drivers/USB/Core/AVR8/../AVR8/Endpoint_AVR8.h **** 
 494:../../tmk_core/protocol/lufa/LUFA-git/LUFA/Drivers/USB/Core/AVR8/../AVR8/Endpoint_AVR8.h **** 			/** Clears the STALL condition on the currently selected endpoint.
 495:../../tmk_core/protocol/lufa/LUFA-git/LUFA/Drivers/USB/Core/AVR8/../AVR8/Endpoint_AVR8.h **** 			 *
 496:../../tmk_core/protocol/lufa/LUFA-git/LUFA/Drivers/USB/Core/AVR8/../AVR8/Endpoint_AVR8.h **** 			 *  \ingroup Group_EndpointPacketManagement_AVR8
 497:../../tmk_core/protocol/lufa/LUFA-git/LUFA/Drivers/USB/Core/AVR8/../AVR8/Endpoint_AVR8.h **** 			 */
 498:../../tmk_core/protocol/lufa/LUFA-git/LUFA/Drivers/USB/Core/AVR8/../AVR8/Endpoint_AVR8.h **** 			static inline void Endpoint_ClearStall(void) ATTR_ALWAYS_INLINE;
 499:../../tmk_core/protocol/lufa/LUFA-git/LUFA/Drivers/USB/Core/AVR8/../AVR8/Endpoint_AVR8.h **** 			static inline void Endpoint_ClearStall(void)
 500:../../tmk_core/protocol/lufa/LUFA-git/LUFA/Drivers/USB/Core/AVR8/../AVR8/Endpoint_AVR8.h **** 			{
 501:../../tmk_core/protocol/lufa/LUFA-git/LUFA/Drivers/USB/Core/AVR8/../AVR8/Endpoint_AVR8.h **** 				UECONX |= (1 << STALLRQC);
 502:../../tmk_core/protocol/lufa/LUFA-git/LUFA/Drivers/USB/Core/AVR8/../AVR8/Endpoint_AVR8.h **** 			}
 503:../../tmk_core/protocol/lufa/LUFA-git/LUFA/Drivers/USB/Core/AVR8/../AVR8/Endpoint_AVR8.h **** 
 504:../../tmk_core/protocol/lufa/LUFA-git/LUFA/Drivers/USB/Core/AVR8/../AVR8/Endpoint_AVR8.h **** 			/** Determines if the currently selected endpoint is stalled, \c false otherwise.
 505:../../tmk_core/protocol/lufa/LUFA-git/LUFA/Drivers/USB/Core/AVR8/../AVR8/Endpoint_AVR8.h **** 			 *
 506:../../tmk_core/protocol/lufa/LUFA-git/LUFA/Drivers/USB/Core/AVR8/../AVR8/Endpoint_AVR8.h **** 			 *  \ingroup Group_EndpointPacketManagement_AVR8
 507:../../tmk_core/protocol/lufa/LUFA-git/LUFA/Drivers/USB/Core/AVR8/../AVR8/Endpoint_AVR8.h **** 			 *
 508:../../tmk_core/protocol/lufa/LUFA-git/LUFA/Drivers/USB/Core/AVR8/../AVR8/Endpoint_AVR8.h **** 			 *  \return Boolean \c true if the currently selected endpoint is stalled, \c false otherwise.
 509:../../tmk_core/protocol/lufa/LUFA-git/LUFA/Drivers/USB/Core/AVR8/../AVR8/Endpoint_AVR8.h **** 			 */
 510:../../tmk_core/protocol/lufa/LUFA-git/LUFA/Drivers/USB/Core/AVR8/../AVR8/Endpoint_AVR8.h **** 			static inline bool Endpoint_IsStalled(void) ATTR_WARN_UNUSED_RESULT ATTR_ALWAYS_INLINE;
 511:../../tmk_core/protocol/lufa/LUFA-git/LUFA/Drivers/USB/Core/AVR8/../AVR8/Endpoint_AVR8.h **** 			static inline bool Endpoint_IsStalled(void)
 512:../../tmk_core/protocol/lufa/LUFA-git/LUFA/Drivers/USB/Core/AVR8/../AVR8/Endpoint_AVR8.h **** 			{
 513:../../tmk_core/protocol/lufa/LUFA-git/LUFA/Drivers/USB/Core/AVR8/../AVR8/Endpoint_AVR8.h **** 				return ((UECONX & (1 << STALLRQ)) ? true : false);
 514:../../tmk_core/protocol/lufa/LUFA-git/LUFA/Drivers/USB/Core/AVR8/../AVR8/Endpoint_AVR8.h **** 			}
 515:../../tmk_core/protocol/lufa/LUFA-git/LUFA/Drivers/USB/Core/AVR8/../AVR8/Endpoint_AVR8.h **** 
 516:../../tmk_core/protocol/lufa/LUFA-git/LUFA/Drivers/USB/Core/AVR8/../AVR8/Endpoint_AVR8.h **** 			/** Resets the data toggle of the currently selected endpoint. */
 517:../../tmk_core/protocol/lufa/LUFA-git/LUFA/Drivers/USB/Core/AVR8/../AVR8/Endpoint_AVR8.h **** 			static inline void Endpoint_ResetDataToggle(void) ATTR_ALWAYS_INLINE;
 518:../../tmk_core/protocol/lufa/LUFA-git/LUFA/Drivers/USB/Core/AVR8/../AVR8/Endpoint_AVR8.h **** 			static inline void Endpoint_ResetDataToggle(void)
 519:../../tmk_core/protocol/lufa/LUFA-git/LUFA/Drivers/USB/Core/AVR8/../AVR8/Endpoint_AVR8.h **** 			{
 520:../../tmk_core/protocol/lufa/LUFA-git/LUFA/Drivers/USB/Core/AVR8/../AVR8/Endpoint_AVR8.h **** 				UECONX |= (1 << RSTDT);
 521:../../tmk_core/protocol/lufa/LUFA-git/LUFA/Drivers/USB/Core/AVR8/../AVR8/Endpoint_AVR8.h **** 			}
 522:../../tmk_core/protocol/lufa/LUFA-git/LUFA/Drivers/USB/Core/AVR8/../AVR8/Endpoint_AVR8.h **** 
 523:../../tmk_core/protocol/lufa/LUFA-git/LUFA/Drivers/USB/Core/AVR8/../AVR8/Endpoint_AVR8.h **** 			/** Sets the direction of the currently selected endpoint.
 524:../../tmk_core/protocol/lufa/LUFA-git/LUFA/Drivers/USB/Core/AVR8/../AVR8/Endpoint_AVR8.h **** 			 *
 525:../../tmk_core/protocol/lufa/LUFA-git/LUFA/Drivers/USB/Core/AVR8/../AVR8/Endpoint_AVR8.h **** 			 *  \param[in] DirectionMask  New endpoint direction, as a \c ENDPOINT_DIR_* mask.
 526:../../tmk_core/protocol/lufa/LUFA-git/LUFA/Drivers/USB/Core/AVR8/../AVR8/Endpoint_AVR8.h **** 			 */
 527:../../tmk_core/protocol/lufa/LUFA-git/LUFA/Drivers/USB/Core/AVR8/../AVR8/Endpoint_AVR8.h **** 			static inline void Endpoint_SetEndpointDirection(const uint8_t DirectionMask) ATTR_ALWAYS_INLINE
 528:../../tmk_core/protocol/lufa/LUFA-git/LUFA/Drivers/USB/Core/AVR8/../AVR8/Endpoint_AVR8.h **** 			static inline void Endpoint_SetEndpointDirection(const uint8_t DirectionMask)
 529:../../tmk_core/protocol/lufa/LUFA-git/LUFA/Drivers/USB/Core/AVR8/../AVR8/Endpoint_AVR8.h **** 			{
 530:../../tmk_core/protocol/lufa/LUFA-git/LUFA/Drivers/USB/Core/AVR8/../AVR8/Endpoint_AVR8.h **** 				UECFG0X = ((UECFG0X & ~(1 << EPDIR)) | (DirectionMask ? (1 << EPDIR) : 0));
 531:../../tmk_core/protocol/lufa/LUFA-git/LUFA/Drivers/USB/Core/AVR8/../AVR8/Endpoint_AVR8.h **** 			}
 532:../../tmk_core/protocol/lufa/LUFA-git/LUFA/Drivers/USB/Core/AVR8/../AVR8/Endpoint_AVR8.h **** 
 533:../../tmk_core/protocol/lufa/LUFA-git/LUFA/Drivers/USB/Core/AVR8/../AVR8/Endpoint_AVR8.h **** 			/** Reads one byte from the currently selected endpoint's bank, for OUT direction endpoints.
 534:../../tmk_core/protocol/lufa/LUFA-git/LUFA/Drivers/USB/Core/AVR8/../AVR8/Endpoint_AVR8.h **** 			 *
 535:../../tmk_core/protocol/lufa/LUFA-git/LUFA/Drivers/USB/Core/AVR8/../AVR8/Endpoint_AVR8.h **** 			 *  \ingroup Group_EndpointPrimitiveRW_AVR8
 536:../../tmk_core/protocol/lufa/LUFA-git/LUFA/Drivers/USB/Core/AVR8/../AVR8/Endpoint_AVR8.h **** 			 *
 537:../../tmk_core/protocol/lufa/LUFA-git/LUFA/Drivers/USB/Core/AVR8/../AVR8/Endpoint_AVR8.h **** 			 *  \return Next byte in the currently selected endpoint's FIFO buffer.
 538:../../tmk_core/protocol/lufa/LUFA-git/LUFA/Drivers/USB/Core/AVR8/../AVR8/Endpoint_AVR8.h **** 			 */
 539:../../tmk_core/protocol/lufa/LUFA-git/LUFA/Drivers/USB/Core/AVR8/../AVR8/Endpoint_AVR8.h **** 			static inline uint8_t Endpoint_Read_8(void) ATTR_WARN_UNUSED_RESULT ATTR_ALWAYS_INLINE;
 540:../../tmk_core/protocol/lufa/LUFA-git/LUFA/Drivers/USB/Core/AVR8/../AVR8/Endpoint_AVR8.h **** 			static inline uint8_t Endpoint_Read_8(void)
 541:../../tmk_core/protocol/lufa/LUFA-git/LUFA/Drivers/USB/Core/AVR8/../AVR8/Endpoint_AVR8.h **** 			{
 542:../../tmk_core/protocol/lufa/LUFA-git/LUFA/Drivers/USB/Core/AVR8/../AVR8/Endpoint_AVR8.h **** 				return UEDATX;
 543:../../tmk_core/protocol/lufa/LUFA-git/LUFA/Drivers/USB/Core/AVR8/../AVR8/Endpoint_AVR8.h **** 			}
 544:../../tmk_core/protocol/lufa/LUFA-git/LUFA/Drivers/USB/Core/AVR8/../AVR8/Endpoint_AVR8.h **** 
 545:../../tmk_core/protocol/lufa/LUFA-git/LUFA/Drivers/USB/Core/AVR8/../AVR8/Endpoint_AVR8.h **** 			/** Writes one byte to the currently selected endpoint's bank, for IN direction endpoints.
 546:../../tmk_core/protocol/lufa/LUFA-git/LUFA/Drivers/USB/Core/AVR8/../AVR8/Endpoint_AVR8.h **** 			 *
 547:../../tmk_core/protocol/lufa/LUFA-git/LUFA/Drivers/USB/Core/AVR8/../AVR8/Endpoint_AVR8.h **** 			 *  \ingroup Group_EndpointPrimitiveRW_AVR8
 548:../../tmk_core/protocol/lufa/LUFA-git/LUFA/Drivers/USB/Core/AVR8/../AVR8/Endpoint_AVR8.h **** 			 *
 549:../../tmk_core/protocol/lufa/LUFA-git/LUFA/Drivers/USB/Core/AVR8/../AVR8/Endpoint_AVR8.h **** 			 *  \param[in] Data  Data to write into the the currently selected endpoint's FIFO buffer.
 550:../../tmk_core/protocol/lufa/LUFA-git/LUFA/Drivers/USB/Core/AVR8/../AVR8/Endpoint_AVR8.h **** 			 */
 551:../../tmk_core/protocol/lufa/LUFA-git/LUFA/Drivers/USB/Core/AVR8/../AVR8/Endpoint_AVR8.h **** 			static inline void Endpoint_Write_8(const uint8_t Data) ATTR_ALWAYS_INLINE;
 552:../../tmk_core/protocol/lufa/LUFA-git/LUFA/Drivers/USB/Core/AVR8/../AVR8/Endpoint_AVR8.h **** 			static inline void Endpoint_Write_8(const uint8_t Data)
 553:../../tmk_core/protocol/lufa/LUFA-git/LUFA/Drivers/USB/Core/AVR8/../AVR8/Endpoint_AVR8.h **** 			{
 554:../../tmk_core/protocol/lufa/LUFA-git/LUFA/Drivers/USB/Core/AVR8/../AVR8/Endpoint_AVR8.h **** 				UEDATX = Data;
 704               		.loc 2 554 0
 705 0056 1092 F100 		sts 241,__zero_reg__
 706               	.LVL46:
 707               	.L93:
 708               	.LBE261:
 709               	.LBE260:
 710               	.LBB262:
 711               	.LBB263:
 360:../../tmk_core/protocol/lufa/LUFA-git/LUFA/Drivers/USB/Core/AVR8/../AVR8/Endpoint_AVR8.h **** 				return ((UEINTX & (1 << RWAL)) ? true : false);
 712               		.loc 2 360 0
 713 005a 8091 E800 		lds r24,232
 714               	.LBE263:
 715               	.LBE262:
 176:../../tmk_core/protocol/lufa/lufa.c ****     while (Endpoint_IsReadWriteAllowed())
 716               		.loc 1 176 0
 717 005e 85FD      		sbrc r24,5
 718 0060 00C0      		rjmp .L84
 719               	.LBB264:
 720               	.LBB265:
 407:../../tmk_core/protocol/lufa/LUFA-git/LUFA/Drivers/USB/Core/AVR8/../AVR8/Endpoint_AVR8.h **** 				return ((UEINTX & (1 << TXINI)) ? true : false);
 721               		.loc 2 407 0
 722 0062 8091 E800 		lds r24,232
 723               	.LBE265:
 724               	.LBE264:
 180:../../tmk_core/protocol/lufa/lufa.c ****     if (Endpoint_IsINReady()) {
 725               		.loc 1 180 0
 726 0066 80FF      		sbrs r24,0
 727 0068 00C0      		rjmp .L85
 728               	.LBB266:
 729               	.LBB267:
 456:../../tmk_core/protocol/lufa/LUFA-git/LUFA/Drivers/USB/Core/AVR8/../AVR8/Endpoint_AVR8.h **** 					UEINTX &= ~((1 << TXINI) | (1 << FIFOCON));
 730               		.loc 2 456 0
 731 006a 8091 E800 		lds r24,232
 732 006e 8E77      		andi r24,lo8(126)
 733 0070 8093 E800 		sts 232,r24
 734               	.L85:
 735               	.LVL47:
 736               	.LBE267:
 737               	.LBE266:
 738               	.LBB268:
 739               	.LBB269:
 270:../../tmk_core/protocol/lufa/LUFA-git/LUFA/Drivers/USB/Core/AVR8/../AVR8/Endpoint_AVR8.h **** 					UENUM = (Address & ENDPOINT_EPNUM_MASK);
 740               		.loc 2 270 0
 741 0074 9F70      		andi r25,lo8(15)
 742               	.LVL48:
 743 0076 9093 E900 		sts 233,r25
 744               	.LVL49:
 745               	.L80:
 746               	.LBE269:
 747               	.LBE268:
 748               	.LBE248:
 749               	.LBE247:
 268:../../tmk_core/protocol/lufa/lufa.c ****     console_flush = false;
 750               		.loc 1 268 0
 751 007a 1092 0000 		sts console_flush,__zero_reg__
 752               	.L76:
 753 007e 0895      		ret
 754               		.cfi_endproc
 755               	.LFE110:
 757               		.section	.text.EVENT_USB_Device_ConfigurationChanged,"ax",@progbits
 758               	.global	EVENT_USB_Device_ConfigurationChanged
 760               	EVENT_USB_Device_ConfigurationChanged:
 761               	.LFB111:
 279:../../tmk_core/protocol/lufa/lufa.c **** {
 762               		.loc 1 279 0
 763               		.cfi_startproc
 764               	/* prologue: function */
 765               	/* frame size = 0 */
 766               	/* stack size = 0 */
 767               	.L__stack_usage = 0
 768               	.LVL50:
 769               	.LBB270:
 770               	.LBB271:
 210:../../tmk_core/protocol/lufa/LUFA-git/LUFA/Drivers/USB/Core/AVR8/../AVR8/Endpoint_AVR8.h **** 				return Endpoint_ConfigureEndpoint_Prv(Number,
 771               		.loc 2 210 0
 772 0000 42E0      		ldi r20,lo8(2)
 773 0002 61EC      		ldi r22,lo8(-63)
 774 0004 81E0      		ldi r24,lo8(1)
 775 0006 0E94 0000 		call Endpoint_ConfigureEndpoint_Prv
 776               	.LVL51:
 777               	.LBE271:
 778               	.LBE270:
 779               	.LBB272:
 780               	.LBB273:
 781 000a 42E0      		ldi r20,lo8(2)
 782 000c 61EC      		ldi r22,lo8(-63)
 783 000e 82E0      		ldi r24,lo8(2)
 784 0010 0E94 0000 		call Endpoint_ConfigureEndpoint_Prv
 785               	.LVL52:
 786               	.LBE273:
 787               	.LBE272:
 788               	.LBB274:
 789               	.LBB275:
 790 0014 42E0      		ldi r20,lo8(2)
 791 0016 61EC      		ldi r22,lo8(-63)
 792 0018 83E0      		ldi r24,lo8(3)
 793 001a 0E94 0000 		call Endpoint_ConfigureEndpoint_Prv
 794               	.LVL53:
 795               	.LBE275:
 796               	.LBE274:
 797               	.LBB276:
 798               	.LBB277:
 799 001e 42E2      		ldi r20,lo8(34)
 800 0020 61EC      		ldi r22,lo8(-63)
 801 0022 84E0      		ldi r24,lo8(4)
 802 0024 0E94 0000 		call Endpoint_ConfigureEndpoint_Prv
 803               	.LVL54:
 804               	.LBE277:
 805               	.LBE276:
 806               	.LBB278:
 807               	.LBB279:
 808 0028 42E1      		ldi r20,lo8(18)
 809 002a 61EC      		ldi r22,lo8(-63)
 810 002c 85E0      		ldi r24,lo8(5)
 811 002e 0C94 0000 		jmp Endpoint_ConfigureEndpoint_Prv
 812               	.LVL55:
 813               	.LBE279:
 814               	.LBE278:
 815               		.cfi_endproc
 816               	.LFE111:
 818               		.section	.text.EVENT_USB_Device_ControlRequest,"ax",@progbits
 819               	.global	EVENT_USB_Device_ControlRequest
 821               	EVENT_USB_Device_ControlRequest:
 822               	.LFB112:
 337:../../tmk_core/protocol/lufa/lufa.c **** {
 823               		.loc 1 337 0
 824               		.cfi_startproc
 825               	/* prologue: function */
 826               	/* frame size = 0 */
 827               	/* stack size = 0 */
 828               	.L__stack_usage = 0
 829               	.LVL56:
 342:../../tmk_core/protocol/lufa/lufa.c ****     switch (USB_ControlRequest.bRequest)
 830               		.loc 1 342 0
 831 0000 8091 0000 		lds r24,USB_ControlRequest+1
 832 0004 8330      		cpi r24,lo8(3)
 833 0006 01F4      		brne .+2
 834 0008 00C0      		rjmp .L102
 835 000a 00F4      		brsh .L106
 836 000c 8130      		cpi r24,lo8(1)
 837 000e 01F0      		breq .L100
 838 0010 8230      		cpi r24,lo8(2)
 839 0012 01F0      		breq .+2
 840 0014 00C0      		rjmp .L98
 841 0016 00C0      		rjmp .L101
 842               	.L106:
 843 0018 8A30      		cpi r24,lo8(10)
 844 001a 01F4      		brne .+2
 845 001c 00C0      		rjmp .L104
 846 001e 8B30      		cpi r24,lo8(11)
 847 0020 01F4      		brne .+2
 848 0022 00C0      		rjmp .L105
 849 0024 8930      		cpi r24,lo8(9)
 850 0026 01F0      		breq .+2
 851 0028 00C0      		rjmp .L98
 852 002a 00C0      		rjmp .L103
 853               	.L100:
 345:../../tmk_core/protocol/lufa/lufa.c ****             if (USB_ControlRequest.bmRequestType == (REQDIR_DEVICETOHOST | REQTYPE_CLASS | REQREC_I
 854               		.loc 1 345 0
 855 002c 8091 0000 		lds r24,USB_ControlRequest
 856 0030 813A      		cpi r24,lo8(-95)
 857 0032 01F0      		breq .+2
 858 0034 00C0      		rjmp .L98
 859               	.LBB280:
 860               	.LBB281:
 444:../../tmk_core/protocol/lufa/LUFA-git/LUFA/Drivers/USB/Core/AVR8/../AVR8/Endpoint_AVR8.h **** 				UEINTX &= ~(1 << RXSTPI);
 861               		.loc 2 444 0
 862 0036 8091 E800 		lds r24,232
 863 003a 877F      		andi r24,lo8(-9)
 864 003c 8093 E800 		sts 232,r24
 865 0040 8091 0000 		lds r24,USB_ControlRequest+4
 866 0044 9091 0000 		lds r25,USB_ControlRequest+4+1
 867 0048 892B      		or r24,r25
 868 004a 01F0      		breq .L115
 869               	.LBE281:
 870               	.LBE280:
 350:../../tmk_core/protocol/lufa/lufa.c ****                 switch (USB_ControlRequest.wIndex) {
 871               		.loc 1 350 0
 872 004c 60E0      		ldi r22,0
 873 004e 80E0      		ldi r24,0
 874 0050 90E0      		ldi r25,0
 875 0052 00C0      		rjmp .L108
 876               	.L115:
 877 0054 60E1      		ldi r22,lo8(16)
 878 0056 80E0      		ldi r24,lo8(keyboard_report_sent)
 879 0058 90E0      		ldi r25,hi8(keyboard_report_sent)
 880               	.L108:
 881               	.LVL57:
 359:../../tmk_core/protocol/lufa/lufa.c ****                 Endpoint_Write_Control_Stream_LE(ReportData, ReportSize);
 882               		.loc 1 359 0
 883 005a 70E0      		ldi r23,0
 884 005c 0E94 0000 		call Endpoint_Write_Control_Stream_LE
 885               	.LVL58:
 886               	.LBB282:
 887               	.LBB283:
 471:../../tmk_core/protocol/lufa/LUFA-git/LUFA/Drivers/USB/Core/AVR8/../AVR8/Endpoint_AVR8.h **** 					UEINTX &= ~((1 << RXOUTI) | (1 << FIFOCON));
 888               		.loc 2 471 0
 889 0060 8091 E800 		lds r24,232
 890 0064 8B77      		andi r24,lo8(123)
 891 0066 8093 E800 		sts 232,r24
 892 006a 0895      		ret
 893               	.LVL59:
 894               	.L103:
 895               	.LBE283:
 896               	.LBE282:
 365:../../tmk_core/protocol/lufa/lufa.c ****             if (USB_ControlRequest.bmRequestType == (REQDIR_HOSTTODEVICE | REQTYPE_CLASS | REQREC_I
 897               		.loc 1 365 0
 898 006c 8091 0000 		lds r24,USB_ControlRequest
 899 0070 8132      		cpi r24,lo8(33)
 900 0072 01F0      		breq .+2
 901 0074 00C0      		rjmp .L98
 369:../../tmk_core/protocol/lufa/lufa.c ****                 switch (USB_ControlRequest.wIndex) {
 902               		.loc 1 369 0
 903 0076 8091 0000 		lds r24,USB_ControlRequest+4
 904 007a 9091 0000 		lds r25,USB_ControlRequest+4+1
 905 007e 0097      		sbiw r24,0
 906 0080 01F0      		breq .L110
 907 0082 0497      		sbiw r24,4
 908 0084 01F0      		breq .+2
 909 0086 00C0      		rjmp .L98
 910               	.L110:
 911               	.LBB284:
 912               	.LBB285:
 444:../../tmk_core/protocol/lufa/LUFA-git/LUFA/Drivers/USB/Core/AVR8/../AVR8/Endpoint_AVR8.h **** 				UEINTX &= ~(1 << RXSTPI);
 913               		.loc 2 444 0
 914 0088 8091 E800 		lds r24,232
 915 008c 877F      		andi r24,lo8(-9)
 916 008e 8093 E800 		sts 232,r24
 917 0092 00C0      		rjmp .L111
 918               	.L112:
 919               	.LBE285:
 920               	.LBE284:
 377:../../tmk_core/protocol/lufa/lufa.c ****                         if (USB_DeviceState == DEVICE_STATE_Unattached)
 921               		.loc 1 377 0
 922 0094 8091 0000 		lds r24,USB_DeviceState
 923 0098 8823      		tst r24
 924 009a 01F4      		brne .+2
 925 009c 00C0      		rjmp .L98
 926               	.L111:
 927               	.LBB286:
 928               	.LBB287:
 419:../../tmk_core/protocol/lufa/LUFA-git/LUFA/Drivers/USB/Core/AVR8/../AVR8/Endpoint_AVR8.h **** 				return ((UEINTX & (1 << RXOUTI)) ? true : false);
 929               		.loc 2 419 0 discriminator 1
 930 009e 8091 E800 		lds r24,232
 931               	.LBE287:
 932               	.LBE286:
 376:../../tmk_core/protocol/lufa/lufa.c ****                     while (!(Endpoint_IsOUTReceived())) {
 933               		.loc 1 376 0 discriminator 1
 934 00a2 82FF      		sbrs r24,2
 935 00a4 00C0      		rjmp .L112
 936               	.LBB288:
 937               	.LBB289:
 542:../../tmk_core/protocol/lufa/LUFA-git/LUFA/Drivers/USB/Core/AVR8/../AVR8/Endpoint_AVR8.h **** 				return UEDATX;
 938               		.loc 2 542 0
 939 00a6 8091 F100 		lds r24,241
 940               	.LBE289:
 941               	.LBE288:
 380:../../tmk_core/protocol/lufa/lufa.c ****                     keyboard_led_stats = Endpoint_Read_8();
 942               		.loc 1 380 0
 943 00aa 8093 0000 		sts keyboard_led_stats,r24
 944               	.LBB290:
 945               	.LBB291:
 471:../../tmk_core/protocol/lufa/LUFA-git/LUFA/Drivers/USB/Core/AVR8/../AVR8/Endpoint_AVR8.h **** 					UEINTX &= ~((1 << RXOUTI) | (1 << FIFOCON));
 946               		.loc 2 471 0
 947 00ae 8091 E800 		lds r24,232
 948 00b2 8B77      		andi r24,lo8(123)
 949 00b4 00C0      		rjmp .L133
 950               	.L102:
 951               	.LBE291:
 952               	.LBE290:
 392:../../tmk_core/protocol/lufa/lufa.c ****             if (USB_ControlRequest.bmRequestType == (REQDIR_DEVICETOHOST | REQTYPE_CLASS | REQREC_I
 953               		.loc 1 392 0
 954 00b6 8091 0000 		lds r24,USB_ControlRequest
 955 00ba 813A      		cpi r24,lo8(-95)
 956 00bc 01F0      		breq .+2
 957 00be 00C0      		rjmp .L98
 394:../../tmk_core/protocol/lufa/lufa.c ****                 if (USB_ControlRequest.wIndex == KEYBOARD_INTERFACE) {
 958               		.loc 1 394 0
 959 00c0 8091 0000 		lds r24,USB_ControlRequest+4
 960 00c4 9091 0000 		lds r25,USB_ControlRequest+4+1
 961 00c8 892B      		or r24,r25
 962 00ca 01F0      		breq .+2
 963 00cc 00C0      		rjmp .L98
 964               	.LBB292:
 965               	.LBB293:
 444:../../tmk_core/protocol/lufa/LUFA-git/LUFA/Drivers/USB/Core/AVR8/../AVR8/Endpoint_AVR8.h **** 				UEINTX &= ~(1 << RXSTPI);
 966               		.loc 2 444 0
 967 00ce 8091 E800 		lds r24,232
 968 00d2 877F      		andi r24,lo8(-9)
 969 00d4 8093 E800 		sts 232,r24
 970               	.L113:
 971               	.LBE293:
 972               	.LBE292:
 973               	.LBB294:
 974               	.LBB295:
 407:../../tmk_core/protocol/lufa/LUFA-git/LUFA/Drivers/USB/Core/AVR8/../AVR8/Endpoint_AVR8.h **** 				return ((UEINTX & (1 << TXINI)) ? true : false);
 975               		.loc 2 407 0 discriminator 1
 976 00d8 8091 E800 		lds r24,232
 977               	.LBE295:
 978               	.LBE294:
 396:../../tmk_core/protocol/lufa/lufa.c ****                     while (!(Endpoint_IsINReady()));
 979               		.loc 1 396 0 discriminator 1
 980 00dc 80FF      		sbrs r24,0
 981 00de 00C0      		rjmp .L113
 397:../../tmk_core/protocol/lufa/lufa.c ****                     Endpoint_Write_8(keyboard_protocol);
 982               		.loc 1 397 0
 983 00e0 8091 0000 		lds r24,keyboard_protocol
 984               	.LVL60:
 985 00e4 00C0      		rjmp .L134
 986               	.LVL61:
 987               	.L105:
 405:../../tmk_core/protocol/lufa/lufa.c ****             if (USB_ControlRequest.bmRequestType == (REQDIR_HOSTTODEVICE | REQTYPE_CLASS | REQREC_I
 988               		.loc 1 405 0
 989 00e6 8091 0000 		lds r24,USB_ControlRequest
 990 00ea 8132      		cpi r24,lo8(33)
 991 00ec 01F4      		brne .L98
 407:../../tmk_core/protocol/lufa/lufa.c ****                 if (USB_ControlRequest.wIndex == KEYBOARD_INTERFACE) {
 992               		.loc 1 407 0
 993 00ee 8091 0000 		lds r24,USB_ControlRequest+4
 994 00f2 9091 0000 		lds r25,USB_ControlRequest+4+1
 995 00f6 892B      		or r24,r25
 996 00f8 01F4      		brne .L98
 997               	.LBB296:
 998               	.LBB297:
 444:../../tmk_core/protocol/lufa/LUFA-git/LUFA/Drivers/USB/Core/AVR8/../AVR8/Endpoint_AVR8.h **** 				UEINTX &= ~(1 << RXSTPI);
 999               		.loc 2 444 0
 1000 00fa 8091 E800 		lds r24,232
 1001 00fe 877F      		andi r24,lo8(-9)
 1002 0100 8093 E800 		sts 232,r24
 1003               	.LBE297:
 1004               	.LBE296:
 409:../../tmk_core/protocol/lufa/lufa.c ****                     Endpoint_ClearStatusStage();
 1005               		.loc 1 409 0
 1006 0104 0E94 0000 		call Endpoint_ClearStatusStage
 1007               	.LVL62:
 411:../../tmk_core/protocol/lufa/lufa.c ****                     keyboard_protocol = (USB_ControlRequest.wValue & 0xFF);
 1008               		.loc 1 411 0
 1009 0108 8091 0000 		lds r24,USB_ControlRequest+2
 1010 010c 8093 0000 		sts keyboard_protocol,r24
 412:../../tmk_core/protocol/lufa/lufa.c ****                     clear_keyboard();
 1011               		.loc 1 412 0
 1012 0110 0C94 0000 		jmp clear_keyboard
 1013               	.LVL63:
 1014               	.L104:
 418:../../tmk_core/protocol/lufa/lufa.c ****             if (USB_ControlRequest.bmRequestType == (REQDIR_HOSTTODEVICE | REQTYPE_CLASS | REQREC_I
 1015               		.loc 1 418 0
 1016 0114 8091 0000 		lds r24,USB_ControlRequest
 1017 0118 8132      		cpi r24,lo8(33)
 1018 011a 01F4      		brne .L98
 1019               	.LBB298:
 1020               	.LBB299:
 444:../../tmk_core/protocol/lufa/LUFA-git/LUFA/Drivers/USB/Core/AVR8/../AVR8/Endpoint_AVR8.h **** 				UEINTX &= ~(1 << RXSTPI);
 1021               		.loc 2 444 0
 1022 011c 8091 E800 		lds r24,232
 1023 0120 877F      		andi r24,lo8(-9)
 1024 0122 8093 E800 		sts 232,r24
 1025               	.LBE299:
 1026               	.LBE298:
 421:../../tmk_core/protocol/lufa/lufa.c ****                 Endpoint_ClearStatusStage();
 1027               		.loc 1 421 0
 1028 0126 0E94 0000 		call Endpoint_ClearStatusStage
 1029               	.LVL64:
 423:../../tmk_core/protocol/lufa/lufa.c ****                 keyboard_idle = ((USB_ControlRequest.wValue & 0xFF00) >> 8);
 1030               		.loc 1 423 0
 1031 012a 8091 0000 		lds r24,USB_ControlRequest+3
 1032 012e 8093 0000 		sts keyboard_idle,r24
 1033 0132 0895      		ret
 1034               	.L101:
 428:../../tmk_core/protocol/lufa/lufa.c ****             if (USB_ControlRequest.bmRequestType == (REQDIR_DEVICETOHOST | REQTYPE_CLASS | REQREC_I
 1035               		.loc 1 428 0
 1036 0134 8091 0000 		lds r24,USB_ControlRequest
 1037 0138 813A      		cpi r24,lo8(-95)
 1038 013a 01F4      		brne .L98
 1039               	.LBB300:
 1040               	.LBB301:
 444:../../tmk_core/protocol/lufa/LUFA-git/LUFA/Drivers/USB/Core/AVR8/../AVR8/Endpoint_AVR8.h **** 				UEINTX &= ~(1 << RXSTPI);
 1041               		.loc 2 444 0
 1042 013c 8091 E800 		lds r24,232
 1043 0140 877F      		andi r24,lo8(-9)
 1044 0142 8093 E800 		sts 232,r24
 1045               	.L114:
 1046               	.LBE301:
 1047               	.LBE300:
 1048               	.LBB302:
 1049               	.LBB303:
 407:../../tmk_core/protocol/lufa/LUFA-git/LUFA/Drivers/USB/Core/AVR8/../AVR8/Endpoint_AVR8.h **** 				return ((UEINTX & (1 << TXINI)) ? true : false);
 1050               		.loc 2 407 0 discriminator 1
 1051 0146 8091 E800 		lds r24,232
 1052               	.LBE303:
 1053               	.LBE302:
 431:../../tmk_core/protocol/lufa/lufa.c ****                 while (!(Endpoint_IsINReady()));
 1054               		.loc 1 431 0 discriminator 1
 1055 014a 80FF      		sbrs r24,0
 1056 014c 00C0      		rjmp .L114
 432:../../tmk_core/protocol/lufa/lufa.c ****                 Endpoint_Write_8(keyboard_idle);
 1057               		.loc 1 432 0
 1058 014e 8091 0000 		lds r24,keyboard_idle
 1059               	.L134:
 1060               	.LVL65:
 1061               	.LBB304:
 1062               	.LBB305:
 1063               		.loc 2 554 0
 1064 0152 8093 F100 		sts 241,r24
 1065               	.LBE305:
 1066               	.LBE304:
 1067               	.LBB306:
 1068               	.LBB307:
 456:../../tmk_core/protocol/lufa/LUFA-git/LUFA/Drivers/USB/Core/AVR8/../AVR8/Endpoint_AVR8.h **** 					UEINTX &= ~((1 << TXINI) | (1 << FIFOCON));
 1069               		.loc 2 456 0
 1070 0156 8091 E800 		lds r24,232
 1071               	.LVL66:
 1072 015a 8E77      		andi r24,lo8(126)
 1073               	.LVL67:
 1074               	.L133:
 1075 015c 8093 E800 		sts 232,r24
 1076               	.LBE307:
 1077               	.LBE306:
 434:../../tmk_core/protocol/lufa/lufa.c ****                 Endpoint_ClearStatusStage();
 1078               		.loc 1 434 0
 1079 0160 0C94 0000 		jmp Endpoint_ClearStatusStage
 1080               	.LVL68:
 1081               	.L98:
 1082 0164 0895      		ret
 1083               		.cfi_endproc
 1084               	.LFE112:
 1086               		.section	.text.sendchar,"ax",@progbits
 1087               	.global	sendchar
 1089               	sendchar:
 1090               	.LFB118:
 591:../../tmk_core/protocol/lufa/lufa.c **** 
 592:../../tmk_core/protocol/lufa/lufa.c **** 
 593:../../tmk_core/protocol/lufa/lufa.c **** /*******************************************************************************
 594:../../tmk_core/protocol/lufa/lufa.c ****  * sendchar
 595:../../tmk_core/protocol/lufa/lufa.c ****  ******************************************************************************/
 596:../../tmk_core/protocol/lufa/lufa.c **** #ifdef CONSOLE_ENABLE
 597:../../tmk_core/protocol/lufa/lufa.c **** #define SEND_TIMEOUT 5
 598:../../tmk_core/protocol/lufa/lufa.c **** int8_t sendchar(uint8_t c)
 599:../../tmk_core/protocol/lufa/lufa.c **** {
 1091               		.loc 1 599 0
 1092               		.cfi_startproc
 1093               	.LVL69:
 1094               	/* prologue: function */
 1095               	/* frame size = 0 */
 1096               	/* stack size = 0 */
 1097               	.L__stack_usage = 0
 1098               	.LBB308:
 600:../../tmk_core/protocol/lufa/lufa.c ****     // Not wait once timeouted.
 601:../../tmk_core/protocol/lufa/lufa.c ****     // Because sendchar() is called so many times, waiting each call causes big lag.
 602:../../tmk_core/protocol/lufa/lufa.c ****     static bool timeouted = false;
 603:../../tmk_core/protocol/lufa/lufa.c **** 
 604:../../tmk_core/protocol/lufa/lufa.c ****     // prevents Console_Task() from running during sendchar() runs.
 605:../../tmk_core/protocol/lufa/lufa.c ****     // or char will be lost. These two function is mutually exclusive.
 606:../../tmk_core/protocol/lufa/lufa.c ****     CONSOLE_FLUSH_SET(false);
 1099               		.loc 1 606 0
 1100 0000 9FB7      		in r25,__SREG__
 1101               	.LVL70:
 1102               	/* #APP */
 1103               	 ;  606 "../../tmk_core/protocol/lufa/lufa.c" 1
 1104 0002 F894      		cli
 1105               	 ;  0 "" 2
 1106               	/* #NOAPP */
 1107 0004 1092 0000 		sts console_flush,__zero_reg__
 1108 0008 9FBF      		out __SREG__,r25
 1109               	.LBE308:
 607:../../tmk_core/protocol/lufa/lufa.c **** 
 608:../../tmk_core/protocol/lufa/lufa.c ****     if (USB_DeviceState != DEVICE_STATE_Configured)
 1110               		.loc 1 608 0
 1111 000a 9091 0000 		lds r25,USB_DeviceState
 1112               	.LVL71:
 1113 000e 9430      		cpi r25,lo8(4)
 1114 0010 01F0      		breq .+2
 1115 0012 00C0      		rjmp .L147
 1116               	.LBB309:
 1117               	.LBB310:
 253:../../tmk_core/protocol/lufa/LUFA-git/LUFA/Drivers/USB/Core/AVR8/../AVR8/Endpoint_AVR8.h **** 					return ((UENUM & ENDPOINT_EPNUM_MASK) | Endpoint_GetEndpointDirection());
 1118               		.loc 2 253 0
 1119 0014 9091 E900 		lds r25,233
 1120               	.LBE310:
 1121 0018 9F70      		andi r25,lo8(15)
 1122               	.LBB313:
 1123               	.LBB311:
 1124               	.LBB312:
 240:../../tmk_core/protocol/lufa/LUFA-git/LUFA/Drivers/USB/Core/AVR8/../AVR8/Endpoint_AVR8.h **** 				return (UECFG0X & (1 << EPDIR)) ? ENDPOINT_DIR_IN : ENDPOINT_DIR_OUT;
 1125               		.loc 2 240 0
 1126 001a 2091 EC00 		lds r18,236
 1127 001e 20FF      		sbrs r18,0
 1128 0020 00C0      		rjmp .L148
 1129 0022 20E8      		ldi r18,lo8(-128)
 1130 0024 00C0      		rjmp .L137
 1131               	.L148:
 1132 0026 20E0      		ldi r18,0
 1133               	.L137:
 1134               	.LBE312:
 1135               	.LBE311:
 1136               	.LBE313:
 253:../../tmk_core/protocol/lufa/LUFA-git/LUFA/Drivers/USB/Core/AVR8/../AVR8/Endpoint_AVR8.h **** 					return ((UENUM & ENDPOINT_EPNUM_MASK) | Endpoint_GetEndpointDirection());
 1137               		.loc 2 253 0
 1138 0028 292B      		or r18,r25
 1139               	.LVL72:
 1140               	.LBE309:
 1141               	.LBB314:
 1142               	.LBB315:
 270:../../tmk_core/protocol/lufa/LUFA-git/LUFA/Drivers/USB/Core/AVR8/../AVR8/Endpoint_AVR8.h **** 					UENUM = (Address & ENDPOINT_EPNUM_MASK);
 1143               		.loc 2 270 0
 1144 002a 94E0      		ldi r25,lo8(4)
 1145 002c 9093 E900 		sts 233,r25
 1146               	.LBE315:
 1147               	.LBE314:
 1148               	.LBB316:
 1149               	.LBB317:
 313:../../tmk_core/protocol/lufa/LUFA-git/LUFA/Drivers/USB/Core/AVR8/../AVR8/Endpoint_AVR8.h **** 				return ((UECONX & (1 << EPEN)) ? true : false);
 1150               		.loc 2 313 0
 1151 0030 9091 EB00 		lds r25,235
 1152               	.LBE317:
 1153               	.LBE316:
 609:../../tmk_core/protocol/lufa/lufa.c ****         return -1;
 610:../../tmk_core/protocol/lufa/lufa.c **** 
 611:../../tmk_core/protocol/lufa/lufa.c ****     uint8_t ep = Endpoint_GetCurrentEndpoint();
 612:../../tmk_core/protocol/lufa/lufa.c ****     Endpoint_SelectEndpoint(CONSOLE_IN_EPNUM);
 613:../../tmk_core/protocol/lufa/lufa.c ****     if (!Endpoint_IsEnabled() || !Endpoint_IsConfigured()) {
 1154               		.loc 1 613 0
 1155 0034 90FF      		sbrs r25,0
 1156 0036 00C0      		rjmp .L142
 1157               	.LBB318:
 1158               	.LBB319:
 370:../../tmk_core/protocol/lufa/LUFA-git/LUFA/Drivers/USB/Core/AVR8/../AVR8/Endpoint_AVR8.h **** 				return ((UESTA0X & (1 << CFGOK)) ? true : false);
 1159               		.loc 2 370 0
 1160 0038 9091 EE00 		lds r25,238
 1161               	.LBE319:
 1162               	.LBE318:
 1163               		.loc 1 613 0
 1164 003c 97FF      		sbrs r25,7
 1165 003e 00C0      		rjmp .L142
 614:../../tmk_core/protocol/lufa/lufa.c ****         goto ERROR_EXIT;
 615:../../tmk_core/protocol/lufa/lufa.c ****     }
 616:../../tmk_core/protocol/lufa/lufa.c **** 
 617:../../tmk_core/protocol/lufa/lufa.c ****     if (timeouted && !Endpoint_IsReadWriteAllowed()) {
 1166               		.loc 1 617 0
 1167 0040 9091 0000 		lds r25,timeouted.4571
 1168 0044 9923      		tst r25
 1169 0046 01F0      		breq .L139
 1170               	.LBB320:
 1171               	.LBB321:
 360:../../tmk_core/protocol/lufa/LUFA-git/LUFA/Drivers/USB/Core/AVR8/../AVR8/Endpoint_AVR8.h **** 				return ((UEINTX & (1 << RWAL)) ? true : false);
 1172               		.loc 2 360 0
 1173 0048 9091 E800 		lds r25,232
 1174               	.LBE321:
 1175               	.LBE320:
 1176               		.loc 1 617 0
 1177 004c 95FF      		sbrs r25,5
 1178 004e 00C0      		rjmp .L142
 1179               	.L139:
 618:../../tmk_core/protocol/lufa/lufa.c ****         goto ERROR_EXIT;
 619:../../tmk_core/protocol/lufa/lufa.c ****     }
 620:../../tmk_core/protocol/lufa/lufa.c **** 
 621:../../tmk_core/protocol/lufa/lufa.c ****     timeouted = false;
 1180               		.loc 1 621 0
 1181 0050 1092 0000 		sts timeouted.4571,__zero_reg__
 1182               	.LVL73:
 622:../../tmk_core/protocol/lufa/lufa.c **** 
 623:../../tmk_core/protocol/lufa/lufa.c ****     uint8_t timeout = SEND_TIMEOUT;
 624:../../tmk_core/protocol/lufa/lufa.c ****     while (!Endpoint_IsReadWriteAllowed()) {
 1183               		.loc 1 624 0
 1184 0054 96E0      		ldi r25,lo8(6)
 1185 0056 00C0      		rjmp .L140
 1186               	.LVL74:
 1187               	.L143:
 625:../../tmk_core/protocol/lufa/lufa.c ****         if (USB_DeviceState != DEVICE_STATE_Configured) {
 1188               		.loc 1 625 0
 1189 0058 3091 0000 		lds r19,USB_DeviceState
 1190 005c 3430      		cpi r19,lo8(4)
 1191 005e 01F4      		brne .L142
 1192               	.LBB322:
 1193               	.LBB323:
 513:../../tmk_core/protocol/lufa/LUFA-git/LUFA/Drivers/USB/Core/AVR8/../AVR8/Endpoint_AVR8.h **** 				return ((UECONX & (1 << STALLRQ)) ? true : false);
 1194               		.loc 2 513 0
 1195 0060 3091 EB00 		lds r19,235
 1196               	.LBE323:
 1197               	.LBE322:
 626:../../tmk_core/protocol/lufa/lufa.c ****             goto ERROR_EXIT;
 627:../../tmk_core/protocol/lufa/lufa.c ****         }
 628:../../tmk_core/protocol/lufa/lufa.c ****         if (Endpoint_IsStalled()) {
 1198               		.loc 1 628 0
 1199 0064 35FD      		sbrc r19,5
 1200 0066 00C0      		rjmp .L142
 1201 0068 9150      		subi r25,lo8(-(-1))
 629:../../tmk_core/protocol/lufa/lufa.c ****             goto ERROR_EXIT;
 630:../../tmk_core/protocol/lufa/lufa.c ****         }
 631:../../tmk_core/protocol/lufa/lufa.c ****         if (!(timeout--)) {
 1202               		.loc 1 631 0
 1203 006a 01F4      		brne .L141
 632:../../tmk_core/protocol/lufa/lufa.c ****             timeouted = true;
 1204               		.loc 1 632 0
 1205 006c 81E0      		ldi r24,lo8(1)
 1206               	.LVL75:
 1207 006e 8093 0000 		sts timeouted.4571,r24
 633:../../tmk_core/protocol/lufa/lufa.c ****             goto ERROR_EXIT;
 1208               		.loc 1 633 0
 1209 0072 00C0      		rjmp .L142
 1210               	.LVL76:
 1211               	.L141:
 1212               	.LBB324:
 1213               	.LBB325:
 164:d:\applications\keyboard\avr-gcc-4.7.2-mingw32\bin\../lib/gcc/avr/4.7.2/../../../../avr/include/util\delay.h **** 	__builtin_avr_delay_cycles(__ticks_dc);
 1214               		.loc 3 164 0
 1215 0074 EFE9      		ldi r30,lo8(3999)
 1216 0076 FFE0      		ldi r31,hi8(3999)
 1217 0078 3197      		1: sbiw r30,1
 1218 007a 01F4      		brne 1b
 1219 007c 00C0      		rjmp .
 1220 007e 0000      		nop
 1221               	.LVL77:
 1222               	.L140:
 1223               	.LBE325:
 1224               	.LBE324:
 1225               	.LBB326:
 1226               	.LBB327:
 360:../../tmk_core/protocol/lufa/LUFA-git/LUFA/Drivers/USB/Core/AVR8/../AVR8/Endpoint_AVR8.h **** 				return ((UEINTX & (1 << RWAL)) ? true : false);
 1227               		.loc 2 360 0 discriminator 1
 1228 0080 3091 E800 		lds r19,232
 1229               	.LBE327:
 1230               	.LBE326:
 624:../../tmk_core/protocol/lufa/lufa.c ****     while (!Endpoint_IsReadWriteAllowed()) {
 1231               		.loc 1 624 0 discriminator 1
 1232 0084 35FF      		sbrs r19,5
 1233 0086 00C0      		rjmp .L143
 1234               	.LVL78:
 1235               	.LBB328:
 1236               	.LBB329:
 1237               		.loc 2 554 0
 1238 0088 8093 F100 		sts 241,r24
 1239               	.LBE329:
 1240               	.LBE328:
 1241               	.LBB330:
 1242               	.LBB331:
 360:../../tmk_core/protocol/lufa/LUFA-git/LUFA/Drivers/USB/Core/AVR8/../AVR8/Endpoint_AVR8.h **** 				return ((UEINTX & (1 << RWAL)) ? true : false);
 1243               		.loc 2 360 0
 1244 008c 8091 E800 		lds r24,232
 1245               	.LVL79:
 1246               	.LBE331:
 1247               	.LBE330:
 634:../../tmk_core/protocol/lufa/lufa.c ****         }
 635:../../tmk_core/protocol/lufa/lufa.c ****         _delay_ms(1);
 636:../../tmk_core/protocol/lufa/lufa.c ****     }
 637:../../tmk_core/protocol/lufa/lufa.c **** 
 638:../../tmk_core/protocol/lufa/lufa.c ****     Endpoint_Write_8(c);
 639:../../tmk_core/protocol/lufa/lufa.c **** 
 640:../../tmk_core/protocol/lufa/lufa.c ****     // send when bank is full
 641:../../tmk_core/protocol/lufa/lufa.c ****     if (!Endpoint_IsReadWriteAllowed()) {
 1248               		.loc 1 641 0
 1249 0090 85FD      		sbrc r24,5
 1250 0092 00C0      		rjmp .L144
 1251               	.L157:
 1252               	.LBB332:
 1253               	.LBB333:
 407:../../tmk_core/protocol/lufa/LUFA-git/LUFA/Drivers/USB/Core/AVR8/../AVR8/Endpoint_AVR8.h **** 				return ((UEINTX & (1 << TXINI)) ? true : false);
 1254               		.loc 2 407 0
 1255 0094 8091 E800 		lds r24,232
 1256               	.LBE333:
 1257               	.LBE332:
 642:../../tmk_core/protocol/lufa/lufa.c ****         while (!(Endpoint_IsINReady()));
 1258               		.loc 1 642 0
 1259 0098 80FF      		sbrs r24,0
 1260 009a 00C0      		rjmp .L157
 1261               	.LBB334:
 1262               	.LBB335:
 456:../../tmk_core/protocol/lufa/LUFA-git/LUFA/Drivers/USB/Core/AVR8/../AVR8/Endpoint_AVR8.h **** 					UEINTX &= ~((1 << TXINI) | (1 << FIFOCON));
 1263               		.loc 2 456 0
 1264 009c 8091 E800 		lds r24,232
 1265 00a0 8E77      		andi r24,lo8(126)
 1266 00a2 8093 E800 		sts 232,r24
 1267 00a6 00C0      		rjmp .L146
 1268               	.L144:
 1269               	.LBE335:
 1270               	.LBE334:
 1271               	.LBB336:
 643:../../tmk_core/protocol/lufa/lufa.c ****         Endpoint_ClearIN();
 644:../../tmk_core/protocol/lufa/lufa.c ****     } else {
 645:../../tmk_core/protocol/lufa/lufa.c ****         CONSOLE_FLUSH_SET(true);
 1272               		.loc 1 645 0
 1273 00a8 8FB7      		in r24,__SREG__
 1274               	.LVL80:
 1275               	/* #APP */
 1276               	 ;  645 "../../tmk_core/protocol/lufa/lufa.c" 1
 1277 00aa F894      		cli
 1278               	 ;  0 "" 2
 1279               	/* #NOAPP */
 1280 00ac 91E0      		ldi r25,lo8(1)
 1281 00ae 9093 0000 		sts console_flush,r25
 1282 00b2 8FBF      		out __SREG__,r24
 1283               	.LVL81:
 1284               	.L146:
 1285               	.LBE336:
 1286               	.LBB337:
 1287               	.LBB338:
 270:../../tmk_core/protocol/lufa/LUFA-git/LUFA/Drivers/USB/Core/AVR8/../AVR8/Endpoint_AVR8.h **** 					UENUM = (Address & ENDPOINT_EPNUM_MASK);
 1288               		.loc 2 270 0
 1289 00b4 2F70      		andi r18,lo8(15)
 1290               	.LVL82:
 1291 00b6 2093 E900 		sts 233,r18
 1292               	.LBE338:
 1293               	.LBE337:
 646:../../tmk_core/protocol/lufa/lufa.c ****     }
 647:../../tmk_core/protocol/lufa/lufa.c **** 
 648:../../tmk_core/protocol/lufa/lufa.c ****     Endpoint_SelectEndpoint(ep);
 649:../../tmk_core/protocol/lufa/lufa.c ****     return 0;
 1294               		.loc 1 649 0
 1295 00ba 80E0      		ldi r24,0
 1296 00bc 0895      		ret
 1297               	.LVL83:
 1298               	.L142:
 1299               	.LBB339:
 1300               	.LBB340:
 270:../../tmk_core/protocol/lufa/LUFA-git/LUFA/Drivers/USB/Core/AVR8/../AVR8/Endpoint_AVR8.h **** 					UENUM = (Address & ENDPOINT_EPNUM_MASK);
 1301               		.loc 2 270 0
 1302 00be 2F70      		andi r18,lo8(15)
 1303               	.LVL84:
 1304 00c0 2093 E900 		sts 233,r18
 1305               	.LVL85:
 1306               	.L147:
 1307               	.LBE340:
 1308               	.LBE339:
 609:../../tmk_core/protocol/lufa/lufa.c ****         return -1;
 1309               		.loc 1 609 0
 1310 00c4 8FEF      		ldi r24,lo8(-1)
 650:../../tmk_core/protocol/lufa/lufa.c **** ERROR_EXIT:
 651:../../tmk_core/protocol/lufa/lufa.c ****     Endpoint_SelectEndpoint(ep);
 652:../../tmk_core/protocol/lufa/lufa.c ****     return -1;
 653:../../tmk_core/protocol/lufa/lufa.c **** }
 1311               		.loc 1 653 0
 1312 00c6 0895      		ret
 1313               		.cfi_endproc
 1314               	.LFE118:
 1316               		.section	.text.startup.main,"ax",@progbits
 1317               		.weak	main
 1319               	main:
 1320               	.LFB121:
 654:../../tmk_core/protocol/lufa/lufa.c **** #else
 655:../../tmk_core/protocol/lufa/lufa.c **** int8_t sendchar(uint8_t c)
 656:../../tmk_core/protocol/lufa/lufa.c **** {
 657:../../tmk_core/protocol/lufa/lufa.c ****     return 0;
 658:../../tmk_core/protocol/lufa/lufa.c **** }
 659:../../tmk_core/protocol/lufa/lufa.c **** #endif
 660:../../tmk_core/protocol/lufa/lufa.c **** 
 661:../../tmk_core/protocol/lufa/lufa.c **** /*******************************************************************************
 662:../../tmk_core/protocol/lufa/lufa.c ****  * MIDI
 663:../../tmk_core/protocol/lufa/lufa.c ****  ******************************************************************************/
 664:../../tmk_core/protocol/lufa/lufa.c **** 
 665:../../tmk_core/protocol/lufa/lufa.c **** #ifdef MIDI_ENABLE
 666:../../tmk_core/protocol/lufa/lufa.c **** void usb_send_func(MidiDevice * device, uint16_t cnt, uint8_t byte0, uint8_t byte1, uint8_t byte2) 
 667:../../tmk_core/protocol/lufa/lufa.c ****   MIDI_EventPacket_t event;
 668:../../tmk_core/protocol/lufa/lufa.c ****   event.Data1 = byte0;
 669:../../tmk_core/protocol/lufa/lufa.c ****   event.Data2 = byte1;
 670:../../tmk_core/protocol/lufa/lufa.c ****   event.Data3 = byte2;
 671:../../tmk_core/protocol/lufa/lufa.c **** 
 672:../../tmk_core/protocol/lufa/lufa.c ****   uint8_t cable = 0;
 673:../../tmk_core/protocol/lufa/lufa.c **** 
 674:../../tmk_core/protocol/lufa/lufa.c **** // Endpoint_SelectEndpoint(MIDI_STREAM_IN_EPNUM);
 675:../../tmk_core/protocol/lufa/lufa.c **** 
 676:../../tmk_core/protocol/lufa/lufa.c ****   //if the length is undefined we assume it is a SYSEX message
 677:../../tmk_core/protocol/lufa/lufa.c ****   if (midi_packet_length(byte0) == UNDEFINED) {
 678:../../tmk_core/protocol/lufa/lufa.c ****     switch(cnt) {
 679:../../tmk_core/protocol/lufa/lufa.c ****       case 3:
 680:../../tmk_core/protocol/lufa/lufa.c ****         if (byte2 == SYSEX_END)
 681:../../tmk_core/protocol/lufa/lufa.c ****           event.Event = MIDI_EVENT(cable, SYSEX_ENDS_IN_3);
 682:../../tmk_core/protocol/lufa/lufa.c ****         else
 683:../../tmk_core/protocol/lufa/lufa.c ****           event.Event = MIDI_EVENT(cable, SYSEX_START_OR_CONT);
 684:../../tmk_core/protocol/lufa/lufa.c ****         break;
 685:../../tmk_core/protocol/lufa/lufa.c ****       case 2:
 686:../../tmk_core/protocol/lufa/lufa.c ****         if (byte1 == SYSEX_END)
 687:../../tmk_core/protocol/lufa/lufa.c ****           event.Event = MIDI_EVENT(cable, SYSEX_ENDS_IN_2);
 688:../../tmk_core/protocol/lufa/lufa.c ****         else
 689:../../tmk_core/protocol/lufa/lufa.c ****           event.Event = MIDI_EVENT(cable, SYSEX_START_OR_CONT);
 690:../../tmk_core/protocol/lufa/lufa.c ****         break;
 691:../../tmk_core/protocol/lufa/lufa.c ****       case 1:
 692:../../tmk_core/protocol/lufa/lufa.c ****         if (byte0 == SYSEX_END)
 693:../../tmk_core/protocol/lufa/lufa.c ****           event.Event = MIDI_EVENT(cable, SYSEX_ENDS_IN_1);
 694:../../tmk_core/protocol/lufa/lufa.c ****         else
 695:../../tmk_core/protocol/lufa/lufa.c ****           event.Event = MIDI_EVENT(cable, SYSEX_START_OR_CONT);
 696:../../tmk_core/protocol/lufa/lufa.c ****         break;
 697:../../tmk_core/protocol/lufa/lufa.c ****       default:
 698:../../tmk_core/protocol/lufa/lufa.c ****         return; //invalid cnt
 699:../../tmk_core/protocol/lufa/lufa.c ****     }
 700:../../tmk_core/protocol/lufa/lufa.c ****   } else {
 701:../../tmk_core/protocol/lufa/lufa.c ****     //deal with 'system common' messages
 702:../../tmk_core/protocol/lufa/lufa.c ****     //TODO are there any more?
 703:../../tmk_core/protocol/lufa/lufa.c ****     switch(byte0 & 0xF0){
 704:../../tmk_core/protocol/lufa/lufa.c ****       case MIDI_SONGPOSITION:
 705:../../tmk_core/protocol/lufa/lufa.c ****         event.Event = MIDI_EVENT(cable, SYS_COMMON_3);
 706:../../tmk_core/protocol/lufa/lufa.c ****         break;
 707:../../tmk_core/protocol/lufa/lufa.c ****       case MIDI_SONGSELECT:
 708:../../tmk_core/protocol/lufa/lufa.c ****       case MIDI_TC_QUARTERFRAME:
 709:../../tmk_core/protocol/lufa/lufa.c ****         event.Event = MIDI_EVENT(cable, SYS_COMMON_2);
 710:../../tmk_core/protocol/lufa/lufa.c ****         break;
 711:../../tmk_core/protocol/lufa/lufa.c ****       default:
 712:../../tmk_core/protocol/lufa/lufa.c ****         event.Event = MIDI_EVENT(cable, byte0);
 713:../../tmk_core/protocol/lufa/lufa.c ****         break;
 714:../../tmk_core/protocol/lufa/lufa.c ****     }
 715:../../tmk_core/protocol/lufa/lufa.c ****   }
 716:../../tmk_core/protocol/lufa/lufa.c **** 
 717:../../tmk_core/protocol/lufa/lufa.c **** // Endpoint_Write_Stream_LE(&event, sizeof(event), NULL);
 718:../../tmk_core/protocol/lufa/lufa.c **** // Endpoint_ClearIN();
 719:../../tmk_core/protocol/lufa/lufa.c **** 
 720:../../tmk_core/protocol/lufa/lufa.c ****   MIDI_Device_SendEventPacket(&USB_MIDI_Interface, &event);
 721:../../tmk_core/protocol/lufa/lufa.c ****   MIDI_Device_Flush(&USB_MIDI_Interface);
 722:../../tmk_core/protocol/lufa/lufa.c ****   MIDI_Device_USBTask(&USB_MIDI_Interface);
 723:../../tmk_core/protocol/lufa/lufa.c ****   USB_USBTask();
 724:../../tmk_core/protocol/lufa/lufa.c **** }
 725:../../tmk_core/protocol/lufa/lufa.c **** 
 726:../../tmk_core/protocol/lufa/lufa.c **** void usb_get_midi(MidiDevice * device) {
 727:../../tmk_core/protocol/lufa/lufa.c ****   MIDI_EventPacket_t event;
 728:../../tmk_core/protocol/lufa/lufa.c ****   while (MIDI_Device_ReceiveEventPacket(&USB_MIDI_Interface, &event)) {
 729:../../tmk_core/protocol/lufa/lufa.c **** 
 730:../../tmk_core/protocol/lufa/lufa.c ****     midi_packet_length_t length = midi_packet_length(event.Data1);
 731:../../tmk_core/protocol/lufa/lufa.c ****     uint8_t input[3];
 732:../../tmk_core/protocol/lufa/lufa.c ****     input[0] = event.Data1;
 733:../../tmk_core/protocol/lufa/lufa.c ****     input[1] = event.Data2;
 734:../../tmk_core/protocol/lufa/lufa.c ****     input[2] = event.Data3;
 735:../../tmk_core/protocol/lufa/lufa.c ****     if (length == UNDEFINED) {
 736:../../tmk_core/protocol/lufa/lufa.c ****       //sysex
 737:../../tmk_core/protocol/lufa/lufa.c ****       if (event.Event == MIDI_EVENT(0, SYSEX_START_OR_CONT) || event.Event == MIDI_EVENT(0, SYSEX_E
 738:../../tmk_core/protocol/lufa/lufa.c ****         length = 3;
 739:../../tmk_core/protocol/lufa/lufa.c ****       } else if (event.Event == MIDI_EVENT(0, SYSEX_ENDS_IN_2)) {
 740:../../tmk_core/protocol/lufa/lufa.c ****         length = 2;
 741:../../tmk_core/protocol/lufa/lufa.c ****       } else if(event.Event ==  MIDI_EVENT(0, SYSEX_ENDS_IN_1)) {
 742:../../tmk_core/protocol/lufa/lufa.c ****         length = 1;
 743:../../tmk_core/protocol/lufa/lufa.c ****       } else {
 744:../../tmk_core/protocol/lufa/lufa.c ****         //XXX what to do?
 745:../../tmk_core/protocol/lufa/lufa.c ****       }
 746:../../tmk_core/protocol/lufa/lufa.c ****     }
 747:../../tmk_core/protocol/lufa/lufa.c **** 
 748:../../tmk_core/protocol/lufa/lufa.c ****     //pass the data to the device input function
 749:../../tmk_core/protocol/lufa/lufa.c ****     if (length != UNDEFINED)
 750:../../tmk_core/protocol/lufa/lufa.c ****       midi_device_input(device, length, input);
 751:../../tmk_core/protocol/lufa/lufa.c ****   }
 752:../../tmk_core/protocol/lufa/lufa.c ****   MIDI_Device_USBTask(&USB_MIDI_Interface);
 753:../../tmk_core/protocol/lufa/lufa.c ****   USB_USBTask();
 754:../../tmk_core/protocol/lufa/lufa.c **** }
 755:../../tmk_core/protocol/lufa/lufa.c **** 
 756:../../tmk_core/protocol/lufa/lufa.c **** void midi_usb_init(MidiDevice * device){
 757:../../tmk_core/protocol/lufa/lufa.c ****   midi_device_init(device);
 758:../../tmk_core/protocol/lufa/lufa.c ****   midi_device_set_send_func(device, usb_send_func);
 759:../../tmk_core/protocol/lufa/lufa.c ****   midi_device_set_pre_input_process_func(device, usb_get_midi);
 760:../../tmk_core/protocol/lufa/lufa.c **** 
 761:../../tmk_core/protocol/lufa/lufa.c ****   SetupHardware();
 762:../../tmk_core/protocol/lufa/lufa.c ****   sei();
 763:../../tmk_core/protocol/lufa/lufa.c **** }
 764:../../tmk_core/protocol/lufa/lufa.c **** 
 765:../../tmk_core/protocol/lufa/lufa.c **** void MIDI_Task(void)
 766:../../tmk_core/protocol/lufa/lufa.c **** {
 767:../../tmk_core/protocol/lufa/lufa.c **** 
 768:../../tmk_core/protocol/lufa/lufa.c ****     /* Device must be connected and configured for the task to run */
 769:../../tmk_core/protocol/lufa/lufa.c ****     dprint("in MIDI_TASK\n");
 770:../../tmk_core/protocol/lufa/lufa.c ****     if (USB_DeviceState != DEVICE_STATE_Configured)
 771:../../tmk_core/protocol/lufa/lufa.c ****       return;
 772:../../tmk_core/protocol/lufa/lufa.c ****     dprint("continuing in MIDI_TASK\n");
 773:../../tmk_core/protocol/lufa/lufa.c **** 
 774:../../tmk_core/protocol/lufa/lufa.c ****     Endpoint_SelectEndpoint(MIDI_STREAM_IN_EPADDR);
 775:../../tmk_core/protocol/lufa/lufa.c **** 
 776:../../tmk_core/protocol/lufa/lufa.c ****     if (Endpoint_IsINReady())
 777:../../tmk_core/protocol/lufa/lufa.c ****     {
 778:../../tmk_core/protocol/lufa/lufa.c **** 
 779:../../tmk_core/protocol/lufa/lufa.c ****         dprint("Endpoint is ready\n");
 780:../../tmk_core/protocol/lufa/lufa.c **** 
 781:../../tmk_core/protocol/lufa/lufa.c ****         uint8_t MIDICommand = 0;
 782:../../tmk_core/protocol/lufa/lufa.c ****         uint8_t MIDIPitch;
 783:../../tmk_core/protocol/lufa/lufa.c **** 
 784:../../tmk_core/protocol/lufa/lufa.c ****         /* Get board button status - if pressed use channel 10 (percussion), otherwise use channel 
 785:../../tmk_core/protocol/lufa/lufa.c ****         uint8_t Channel = MIDI_CHANNEL(1);
 786:../../tmk_core/protocol/lufa/lufa.c **** 
 787:../../tmk_core/protocol/lufa/lufa.c ****         MIDICommand = MIDI_COMMAND_NOTE_ON;
 788:../../tmk_core/protocol/lufa/lufa.c ****         MIDIPitch   = 0x3E;
 789:../../tmk_core/protocol/lufa/lufa.c **** 
 790:../../tmk_core/protocol/lufa/lufa.c ****         /* Check if a MIDI command is to be sent */
 791:../../tmk_core/protocol/lufa/lufa.c ****         if (MIDICommand)
 792:../../tmk_core/protocol/lufa/lufa.c ****         {
 793:../../tmk_core/protocol/lufa/lufa.c ****             dprint("Command exists\n");
 794:../../tmk_core/protocol/lufa/lufa.c ****             MIDI_EventPacket_t MIDIEvent = (MIDI_EventPacket_t)
 795:../../tmk_core/protocol/lufa/lufa.c ****                 {
